******************************************************************************
                  TI ARM Linker Unix v16.9.2                   
******************************************************************************
>> Linked Mon Mar 26 12:13:59 2018

OUTPUT FILE NAME:   <bin/tda2xx-evm/edma3_drv_arm_tda2xx_core0_sample_m4_release.xem4>
ENTRY POINT SYMBOL: "ti_sysbios_family_arm_ducati_Core_reset"  address: 00000009


MEMORY CONFIGURATION

         name            origin    length      used     unused   attr    fill
----------------------  --------  ---------  --------  --------  ----  --------
  L2_ROM                00000000   00004000  000001a0  00003e60  RWIX
  L2_RAM                20000000   00010000  00000000  00010000  RWIX
  OCMC_RAM1             40300000   00080000  00000000  00080000  RWIX
  OCMC_RAM2             40400000   00100000  00000000  00100000  RWIX
  OCMC_RAM3             40500000   00100000  00000000  00100000  RWIX
  CODE_CORE_IPU1_0      84000000   01000000  0001209a  00fedf66  RW X
  PRIVATE_DATA_CORE_IPU 85000000   01800000  0003ee3c  017c11c4  RW X
  SHARED_FRAME_BUFFER   8a000000   04000000  00000000  04000000  RW X
  SHARED_CTRL           a0000000   01000000  00000000  01000000  RW X
  SHARED_LOG_MEM        a1000000   00700000  00000000  00700000  RW X
  HDVPSS_DESCRIPTOR_NON a1800000   00800000  00000000  00800000  RW X
  SHARED_MEM            a2000000   01000000  00000000  01000000  RW X


SEGMENT ALLOCATION MAP

run origin  load origin   length   init length attrs members
----------  ----------- ---------- ----------- ----- -------
00000000    00000000    00000050   00000050    r-x
  00000000    00000000    00000050   00000050    r-x .ducatiBoot
00000400    00000400    00000140   00000140    r--
  00000400    00000400    00000140   00000140    r-- .resetVecs
000007f0    000007f0    00000010   00000000    rw-
  000007f0    000007f0    00000010   00000000    rw- .ducatiGates
84000000    84000000    0001209a   0001209a    r-x
  84000000    84000000    0001209a   0001209a    r-x .text
85000000    85000000    00030788   00000000    rw-
  85000000    85000000    00030788   00000000    rw- .bss
85030788    85030788    000091f4   000051f2    rw-
  85030788    85030788    000051f2   000051f2    rw- .data
  8503597c    8503597c    00004000   00000000    rw- .stack
8503997c    8503997c    00002b02   00002b02    r--
  8503997c    8503997c    00002b02   00002b02    r-- .const
8503c480    8503c480    000029c0   00000000    rw-
  8503c480    8503c480    000021c0   00000000    rw- .my_sect_ddr
  8503e640    8503e640    00000800   00000000    rw- .bss:taskStackSection


SECTION ALLOCATION MAP

 output                                  attributes/
section   page    origin      length       input sections
--------  ----  ----------  ----------   ----------------
.bss       0    85000000    00030788     UNINITIALIZED
                  85000000    00015000     (.common:ti_sysbios_heaps_HeapMem_Instance_State_0_buf__A)
                  85015000    000088e0     (.common:edma3DrvChBoundRes)
                  8501d8e0    00005b40     edma3_lld_rm.aem4 : edma3resmgr.oem4 (.bss:edma3RmChBoundRes)
                  85023420    000047e0     (.common:drvInstance)
                  85027c00    00003ca0     (.common:resMgrInstanceArray)
                  8502b8a0    00001a40     (.common:userInstInitConfigArray)
                  8502d2e0    00000e74     (.common:drvObj)
                  8502e154    00000e74     (.common:resMgrObj)
                  8502efc8    00000a00                       : edma3resmgr.oem4 (.bss:edma3IntrParams)
                  8502f9c8    00000500                       : edma3resmgr.oem4 (.bss:edma3DmaChTccMapping)
                  8502fec8    00000400     (.common:xdc_runtime_SysMin_Module_State_0_outbuf__A)
                  850302c8    00000140     (.common:ti_sysbios_family_arm_m3_Hwi_dispatchTable)
                  85030408    00000120     rtsv7M4_T_le_eabi.lib : trgmsg.obj (.bss:_CIOBUF_)
                  85030528    000000a0     edma3_lld_rm.aem4 : edma3resmgr.oem4 (.bss:edma3QdmaChTccMapping)
                  850305c8    000000a0     (.common:__TI_tmpnams)
                  85030668    00000040                       : edma3resmgr.oem4 (.bss:contiguousParamRes)
                  850306a8    00000020     (.common:hwiTCErrInt)
                  850306c8    00000014     (.common:edma3_dma_ch_max_val)
                  850306dc    00000014     (.common:edma3_link_ch_max_val)
                  850306f0    00000014     (.common:edma3_link_ch_min_val)
                  85030704    00000014     (.common:edma3_log_ch_max_val)
                  85030718    00000014     (.common:edma3_qdma_ch_max_val)
                  8503072c    00000014     (.common:edma3_qdma_ch_min_val)
                  85030740    00000008     rtsv7M4_T_le_eabi.lib : trgdrv.obj (.bss:parmbuf)
                  85030748    00000004     (.common:dsp_num)
                  8503074c    00000004     (.common:dsp_num_tmp)
                  85030750    00000004     (.common:dstBuff1)
                  85030754    00000004     (.common:dstBuff2)
                  85030758    00000004     (.common:dstL1DBuff1)
                  8503075c    00000004     (.common:dstL1DBuff2)
                  85030760    00000004     (.common:hwiCCErrInt)
                  85030764    00000004     (.common:hwiCCXferCompInt)
                  85030768    00000004     (.common:myCoreNum)
                  8503076c    00000004     (.common:pingpongDestBuf)
                  85030770    00000004     (.common:pingpongDestBufCopy)
                  85030774    00000004     (.common:pingpongSrcBuf)
                  85030778    00000004     (.common:pingpongSrcBufCopy)
                  8503077c    00000004     (.common:region_id)
                  85030780    00000004     (.common:srcBuff1)
                  85030784    00000004     (.common:srcBuff2)

.neardata 
*          0    85030788    00000000     UNINITIALIZED

.rodata    0    85030788    00000000     UNINITIALIZED

.stack     0    8503597c    00004000     UNINITIALIZED
                  8503597c    00004000     --HOLE--

.cinit     0    84000000    00000000     UNINITIALIZED

.init_array 
*          0    84000000    00000000     UNINITIALIZED

.bootVecs 
*          0    00000000    00000008     DSECT
                  00000000    00000008     boot.aem4 : boot.oem4 (.bootVecs)

.resetVecs 
*          0    00000400    00000140     
                  00000400    00000140     edma3_drv_bios6_tda2xx_m4_c0_st_sample_pem4.oem4 (.resetVecs)

.vecs      0    00000400    00000000     DSECT

.ducatiBoot 
*          0    00000000    00000050     
                  00000000    00000050     sysbios.aem4 : ducati_Core_asm.obj (.ducatiBoot)

.ducatiGates 
*          0    000007f0    00000010     UNINITIALIZED
                  000007f0    00000010     edma3_drv_bios6_tda2xx_m4_c0_st_sample_pem4.oem4 (.ducatiGates)

.data      0    85030788    000051f2     
                  85030788    000017a0     edma3_lld_drv_sample.aem4 : sample_tda2xx_cfg.oem4 (.data:sampleXbarChanInitConfig)
                  85031f28    00000fc0     edma3_lld_rm.aem4 : edma3_tda2xx_cfg.oem4 (.data:defInstInitConfig)
                  85032ee8    00000fc0     edma3_lld_drv_sample.aem4 : sample_tda2xx_cfg.oem4 (.data:sampleInstInitConfig)
                  85033ea8    00000888     edma3_lld_rm.aem4 : edma3_tda2xx_cfg.oem4 (.data:edma3GblCfgParams)
                  85034730    00000888     edma3_lld_drv_sample.aem4 : sample_tda2xx_cfg.oem4 (.data:sampleEdma3GblCfgParams)
                  85034fb8    000000f0     rtsv7M4_T_le_eabi.lib : defs.obj (.data:_ftable)
                  850350a8    000000d0                           : lowlev.obj (.data:$O1$$)
                  85035178    00000080     edma3_drv_bios6_tda2xx_m4_c0_st_sample_pem4.oem4 (.data:ti_sysbios_knl_Swi_Module_State_0_readyQ__A)
                  850351f8    00000080     edma3_drv_bios6_tda2xx_m4_c0_st_sample_pem4.oem4 (.data:ti_sysbios_knl_Task_Module_State_0_readyQ__A)
                  85035278    00000072     edma3_drv_bios6_tda2xx_m4_c0_st_sample_pem4.oem4 (.data:ti_sysbios_family_shared_vayu_IntXbar_Module_State_0_intXbar__A)
                  850352ea    00000002     edma3_lld_drv.aem4 : edma3_drv_init.oem4 (.data)
                  850352ec    00000060     edma3_lld_drv_sample.aem4 : sample_tda2xx_cfg.oem4 (.data:ccCompEdmaXbarIndex)
                  8503534c    00000060                               : sample_tda2xx_cfg.oem4 (.data:ccXferCompInt)
                  850353ac    00000060                               : sample_tda2xx_cfg.oem4 (.data:ccXferCompIntXbarInstNo)
                  8503540c    00000060                               : sample_tda2xx_cfg.oem4 (.data:tcErrEdmaXbarIndex)
                  8503546c    00000060                               : sample_tda2xx_cfg.oem4 (.data:tcErrorInt)
                  850354cc    00000060                               : sample_tda2xx_cfg.oem4 (.data:tcErrorIntXbarInstNo)
                  8503552c    0000004c     edma3_drv_bios6_tda2xx_m4_c0_st_sample_pem4.oem4 (.data:ti_sysbios_knl_Task_Object__table__V)
                  85035578    00000044     edma3_drv_bios6_tda2xx_m4_c0_st_sample_pem4.oem4 (.data:ti_sysbios_knl_Task_Module__state__V)
                  850355bc    00000038     edma3_drv_bios6_tda2xx_m4_c0_st_sample_pem4.oem4 (.data:ti_sysbios_gates_GateMutex_Object__table__V)
                  850355f4    00000034     edma3_drv_bios6_tda2xx_m4_c0_st_sample_pem4.oem4 (.data:ti_sysbios_family_arm_ducati_Timer_Object__table__V)
                  85035628    00000034     edma3_drv_bios6_tda2xx_m4_c0_st_sample_pem4.oem4 (.data:ti_sysbios_family_arm_m3_Hwi_Module__state__V)
                  8503565c    00000030     edma3_drv_bios6_tda2xx_m4_c0_st_sample_pem4.oem4 (.data:ti_sysbios_family_arm_m3_Hwi_Object__table__V)
                  8503568c    00000030     edma3_drv_bios6_tda2xx_m4_c0_st_sample_pem4.oem4 (.data:ti_sysbios_knl_Swi_Object__table__V)
                  850356bc    0000002c     edma3_drv_bios6_tda2xx_m4_c0_st_sample_pem4.oem4 (.data:ti_sysbios_knl_Clock_Module__state__V)
                  850356e8    00000028     edma3_lld_rm.aem4 : edma3resmgr.oem4 (.data:allocatedTCCs)
                  85035710    00000024     edma3_drv_bios6_tda2xx_m4_c0_st_sample_pem4.oem4 (.data:ti_sysbios_BIOS_Module__state__V)
                  85035734    00000020     edma3_lld_drv_sample.aem4 : sample_tda2xx_arm_int_reg.oem4 (.data:ptrEdma3TcIsrHandler)
                  85035754    00000020     edma3_drv_bios6_tda2xx_m4_c0_st_sample_pem4.oem4 (.data:ti_sysbios_family_arm_ducati_GateDualCore_Object__table__V)
                  85035774    00000020     edma3_drv_bios6_tda2xx_m4_c0_st_sample_pem4.oem4 (.data:xdc_runtime_Error_IgnoreBlock)
                  85035794    00000020     edma3_drv_bios6_tda2xx_m4_c0_st_sample_pem4.oem4 (.data:xdc_runtime_System_Module_State_0_atexitHandlers__A)
                  850357b4    0000001c     edma3_drv_bios6_tda2xx_m4_c0_st_sample_pem4.oem4 (.data:ti_sysbios_knl_Swi_Module__state__V)
                  850357d0    00000018     edma3_drv_bios6_tda2xx_m4_c0_st_sample_pem4.oem4 (.data:ti_sysbios_heaps_HeapMem_Object__table__V)
                  850357e8    00000014     edma3_lld_rm.aem4 : edma3resmgr.oem4 (.data:masterExists)
                  850357fc    00000010                       : edma3_rm_gbl_data.oem4 (.data)
                  8503580c    00000010     qdma_link_test.oem4 (.data)
                  8503581c    00000010     rtsv7M4_T_le_eabi.lib : defs.obj (.data)
                  8503582c    0000000c                           : exit.obj (.data:$O1$$)
                  85035838    0000000c     edma3_lld_drv_sample.aem4 : sample_tda2xx_cfg.oem4 (.data:ccErrEdmaXbarIndex)
                  85035844    0000000c                               : sample_tda2xx_cfg.oem4 (.data:ccErrorInt)
                  85035850    0000000c                               : sample_tda2xx_cfg.oem4 (.data:ccErrorIntXbarInstNo)
                  8503585c    0000000c     common.oem4 (.data)
                  85035868    0000000c     edma3_lld_drv_sample.aem4 : sample_tda2xx_arm_int_reg.oem4 (.data)
                  85035874    0000000c                               : sample_tda2xx_cfg.oem4 (.data:numEdma3Tc)
                  85035880    0000000c                               : sample_tda2xx_cfg.oem4 (.data:semHandle)
                  8503588c    0000000c     edma3_drv_bios6_tda2xx_m4_c0_st_sample_pem4.oem4 (.data:ti_sysbios_family_arm_ducati_Timer_Module__state__V)
                  85035898    0000000c     edma3_drv_bios6_tda2xx_m4_c0_st_sample_pem4.oem4 (.data:xdc_runtime_SysMin_Module__state__V)
                  850358a4    0000000a     edma3_lld_rm.aem4 : edma3resmgr.oem4 (.data)
                  850358ae    00000002     edma3_drv_bios6_tda2xx_m4_c0_st_sample_pem4.oem4 (.data:ti_sysbios_family_arm_m3_Hwi_Module_State_0_excActive__A)
                  850358b0    00000008     rtsv7M4_T_le_eabi.lib : _lock.obj (.data:$O1$$)
                  850358b8    00000008     edma3_lld_rm.aem4 : edma3resmgr.oem4 (.data:contiguousDmaRes)
                  850358c0    00000008                       : edma3resmgr.oem4 (.data:contiguousTccRes)
                  850358c8    00000008     qdma_test.oem4 (.data)
                  850358d0    00000008     edma3_drv_bios6_tda2xx_m4_c0_st_sample_pem4.oem4 (.data:ti_sysbios_family_arm_ducati_GateDualCore_Module__root__V)
                  850358d8    00000008     edma3_drv_bios6_tda2xx_m4_c0_st_sample_pem4.oem4 (.data:ti_sysbios_family_arm_ducati_Timer_Module__root__V)
                  850358e0    00000008     edma3_drv_bios6_tda2xx_m4_c0_st_sample_pem4.oem4 (.data:ti_sysbios_family_arm_m3_Hwi_Module__root__V)
                  850358e8    00000008     edma3_drv_bios6_tda2xx_m4_c0_st_sample_pem4.oem4 (.data:ti_sysbios_gates_GateHwi_Module__root__V)
                  850358f0    00000008     edma3_drv_bios6_tda2xx_m4_c0_st_sample_pem4.oem4 (.data:ti_sysbios_gates_GateMutex_Module__root__V)
                  850358f8    00000008     edma3_drv_bios6_tda2xx_m4_c0_st_sample_pem4.oem4 (.data:ti_sysbios_hal_Hwi_Module__root__V)
                  85035900    00000008     edma3_drv_bios6_tda2xx_m4_c0_st_sample_pem4.oem4 (.data:ti_sysbios_heaps_HeapMem_Module__root__V)
                  85035908    00000008     edma3_drv_bios6_tda2xx_m4_c0_st_sample_pem4.oem4 (.data:ti_sysbios_knl_Clock_Module__root__V)
                  85035910    00000008     edma3_drv_bios6_tda2xx_m4_c0_st_sample_pem4.oem4 (.data:ti_sysbios_knl_Queue_Module__root__V)
                  85035918    00000008     edma3_drv_bios6_tda2xx_m4_c0_st_sample_pem4.oem4 (.data:ti_sysbios_knl_Semaphore_Module__root__V)
                  85035920    00000008     edma3_drv_bios6_tda2xx_m4_c0_st_sample_pem4.oem4 (.data:ti_sysbios_knl_Swi_Module__root__V)
                  85035928    00000008     edma3_drv_bios6_tda2xx_m4_c0_st_sample_pem4.oem4 (.data:ti_sysbios_knl_Task_Module__root__V)
                  85035930    00000008     edma3_drv_bios6_tda2xx_m4_c0_st_sample_pem4.oem4 (.data:xdc_runtime_Registry_Module__state__V)
                  85035938    00000008     edma3_drv_bios6_tda2xx_m4_c0_st_sample_pem4.oem4 (.data:xdc_runtime_Startup_Module__state__V)
                  85035940    00000008     edma3_drv_bios6_tda2xx_m4_c0_st_sample_pem4.oem4 (.data:xdc_runtime_System_Module__state__V)
                  85035948    00000004     edma3_lld_rm.aem4 : edma3resmgr.oem4 (.data:contiguousQdmaRes)
                  8503594c    00000004     main.oem4 (.data)
                  85035950    00000004     rtsv7M4_T_le_eabi.lib : errno.obj (.data)
                  85035954    00000004                           : fopen.obj (.data)
                  85035958    00000004                           : stkdepth_vars.obj (.data)
                  8503595c    00000004     edma3_drv_bios6_tda2xx_m4_c0_st_sample_pem4.oem4 (.data:ti_sysbios_family_arm_ducati_GateDualCore_Module__state__V)
                  85035960    00000004     edma3_drv_bios6_tda2xx_m4_c0_st_sample_pem4.oem4 (.data:ti_sysbios_family_arm_m3_Hwi_Module_State_0_excContext__A)
                  85035964    00000004     edma3_drv_bios6_tda2xx_m4_c0_st_sample_pem4.oem4 (.data:ti_sysbios_family_arm_m3_Hwi_Module_State_0_excStack__A)
                  85035968    00000004     edma3_drv_bios6_tda2xx_m4_c0_st_sample_pem4.oem4 (.data:ti_sysbios_family_shared_vayu_IntXbar_Module__state__V)
                  8503596c    00000004     edma3_drv_bios6_tda2xx_m4_c0_st_sample_pem4.oem4 (.data:ti_sysbios_gates_GateHwi_Object__table__V)
                  85035970    00000004     edma3_drv_bios6_tda2xx_m4_c0_st_sample_pem4.oem4 (.data:ti_sysbios_knl_Task_Module_State_0_idleTask__A)
                  85035974    00000004     edma3_drv_bios6_tda2xx_m4_c0_st_sample_pem4.oem4 (.data:xdc_runtime_Memory_Module__state__V)
                  85035978    00000002     edma3_drv_bios6_tda2xx_m4_c0_st_sample_pem4.oem4 (.data:xdc_runtime_Error_Module__state__V)

.bss:taskStackSection 
*          0    8503e640    00000800     UNINITIALIZED
                  8503e640    00000800     edma3_drv_bios6_tda2xx_m4_c0_st_sample_pem4.oem4 (.bss:taskStackSection)

.my_sect_ddr 
*          0    8503c480    000021c0     UNINITIALIZED
                  8503c480    00001fc0     dma_ping_pong_test.oem4 (.my_sect_ddr)
                  8503e440    00000040     --HOLE--
                  8503e480    000001c0     common.oem4 (.my_sect_ddr)

xdc.meta   0    85000000    000001b2     COPY SECTION
                  85000000    000001b2     edma3_drv_bios6_tda2xx_m4_c0_st_sample_pem4.oem4 (xdc.meta)

.text      0    84000000    0001209a     
                  84000000    00002f2c     edma3_lld_rm.aem4 : edma3resmgr.oem4 (.text)
                  84002f2c    00001610     edma3_drv_bios6_tda2xx_m4_c0_st_sample_pem4.oem4 (.text)
                  8400453c    00001288     edma3_lld_drv.aem4 : edma3_drv_basic.oem4 (.text)
                  840057c4    00001122     rtsv7M4_T_le_eabi.lib : _printfi.obj (.text)
                  840068e6    00000002                           : i_div0.obj (.text)
                  840068e8    00000d40     edma3_lld_drv.aem4 : edma3_drv_adv.oem4 (.text)
                  84007628    00000c12     main.oem4 (.text)
                  8400823a    00000002     --HOLE-- [fill = 0]
                  8400823c    00000758     qdma_link_test.oem4 (.text)
                  84008994    000004e4     edma3_lld_drv.aem4 : edma3_drv_init.oem4 (.text)
                  84008e78    000004ba     dma_poll_test.oem4 (.text)
                  84009332    00000006     ti.targets.arm.rtsarm.aem4 : System.oem4 (.text:xdc_runtime_System_Module_startup__E)
                  84009338    00000430     sysbios.aem4 : BIOS.obj (.text:ti_sysbios_family_arm_m3_Hwi_excDumpRegs__I)
                  84009768    00000428     dma_ping_pong_test.oem4 (.text)
                  84009b90    00000400     dma_link_test.oem4 (.text)
                  84009f90    000003bc     dma_chain_test.oem4 (.text)
                  8400a34c    000003b4     qdma_test.oem4 (.text)
                  8400a700    00000378     dma_test.oem4 (.text)
                  8400aa78    00000354     ti.targets.arm.rtsarm.aem4 : System.oem4 (.text:xdc_runtime_System_doPrint__I)
                  8400adcc    00000324     rtsv7M4_T_le_eabi.lib : trgdrv.obj (.text)
                  8400b0f0    00000314     sysbios.aem4 : BIOS.obj (.text:ti_sysbios_knl_Semaphore_pend__E)
                  8400b404    0000030c     rtsv7M4_T_le_eabi.lib : lowlev.obj (.text)
                  8400b710    000002c8     edma3_lld_drv_sample.aem4 : sample_tda2xx_arm_int_reg.oem4 (.text)
                  8400b9d8    00000250     sysbios.aem4 : BIOS.obj (.text:ti_sysbios_heaps_HeapMem_freeUnprotected__E)
                  8400bc28    00000224                  : BIOS.obj (.text:ti_sysbios_knl_Task_Instance_finalize__E)
                  8400be4c    00000004     rtsv7M4_T_le_eabi.lib : remove.obj (.text:remove)
                  8400be50    000001fc     sysbios.aem4 : BIOS.obj (.text:ti_sysbios_family_arm_m3_Hwi_excHandlerMax__I)
                  8400c04c    00000004     edma3_drv_bios6_tda2xx_m4_c0_st_sample_pem4.oem4 (.text:ti_sysbios_hal_Cache_CacheProxy_inv__E)
                  8400c050    000001fc     sysbios.aem4 : BIOS.obj (.text:ti_sysbios_heaps_HeapMem_allocUnprotected__E)
                  8400c24c    000001f4     rtsv7M4_T_le_eabi.lib : ull_div_t2.obj (.text)
                  8400c440    000001d8     sysbios.aem4 : BIOS.obj (.text:ti_sysbios_hal_unicache_Cache_startup__I)
                  8400c618    000001c4     rtsv7M4_T_le_eabi.lib : fopen.obj (.text)
                  8400c7dc    00000004     edma3_drv_bios6_tda2xx_m4_c0_st_sample_pem4.oem4 (.text:ti_sysbios_hal_Cache_CacheProxy_wb__E)
                  8400c7e0    000001c4     sysbios.aem4 : BIOS.obj (.text:ti_sysbios_family_arm_ducati_Timer_Instance_init__E)
                  8400c9a4    00000004     edma3_drv_bios6_tda2xx_m4_c0_st_sample_pem4.oem4 (.text:ti_sysbios_hal_Hwi_HwiProxy_disableInterrupt__E)
                  8400c9a8    000001c0     sysbios.aem4 : BIOS.obj (.text:ti_sysbios_knl_Task_Instance_init__E)
                  8400cb68    000001b6     rtsv7M4_T_le_eabi.lib : fd_add_t2.obj (.text)
                  8400cd1e    00000002     --HOLE-- [fill = 0]
                  8400cd20    0000019c     sysbios.aem4 : BIOS.obj (.text:ti_sysbios_knl_Task_Module_startup__E)
                  8400cebc    00000004     edma3_drv_bios6_tda2xx_m4_c0_st_sample_pem4.oem4 (.text:ti_sysbios_hal_Hwi_HwiProxy_enableInterrupt__E)
                  8400cec0    00000174     sysbios.aem4 : BIOS.obj (.text:ti_sysbios_family_arm_m3_Hwi_excBusFault__I)
                  8400d034    00000164     edma3_lld_drv_sample.aem4 : sample_arm_cs.oem4 (.text)
                  8400d198    00000164     sysbios.aem4 : BIOS.obj (.text:ti_sysbios_family_arm_m3_Hwi_excUsageFault__I)
                  8400d2fc    00000004     edma3_drv_bios6_tda2xx_m4_c0_st_sample_pem4.oem4 (.text:ti_sysbios_hal_Hwi_HwiProxy_startup__E)
                  8400d300    00000150     sysbios.aem4 : BIOS.obj (.text:ti_sysbios_hal_unicache_Cache_inv__E)
                  8400d450    0000014c                  : BIOS.obj (.text:ti_sysbios_family_shared_vayu_IntXbar_connect__E)
                  8400d59c    00000004     edma3_drv_bios6_tda2xx_m4_c0_st_sample_pem4.oem4 (.text:ti_sysbios_hal_Hwi_HwiProxy_switchFromBootStack__E)
                  8400d5a0    00000148     sysbios.aem4 : BIOS.obj (.text:ti_sysbios_family_arm_m3_Hwi_excMemFault__I)
                  8400d6e8    00000140                  : BIOS.obj (.text:ti_sysbios_knl_Semaphore_post__E)
                  8400d828    0000013c                  : BIOS.obj (.text:ti_sysbios_heaps_HeapMem_Instance_init__E)
                  8400d964    00000004     edma3_drv_bios6_tda2xx_m4_c0_st_sample_pem4.oem4 (.text:ti_sysbios_heaps_HeapMem_Module_GateProxy_query__E)
                  8400d968    0000013c     sysbios.aem4 : BIOS.obj (.text:ti_sysbios_knl_Clock_workFunc__E)
                  8400daa4    00000004     edma3_drv_bios6_tda2xx_m4_c0_st_sample_pem4.oem4 (.text:ti_sysbios_knl_Task_SupportProxy_getStackAlignment__E)
                  8400daa8    00000138     sysbios.aem4 : BIOS.obj (.text:ti_sysbios_family_arm_m3_Hwi_dispatchC__I)
                  8400dbe0    00000136     rtsv7M4_T_le_eabi.lib : fd_div_t2.obj (.text)
                  8400dd16    00000002     --HOLE-- [fill = 0]
                  8400dd18    00000134                           : fputs.obj (.text)
                  8400de4c    00000130     ti.targets.arm.rtsarm.aem4 : Error.oem4 (.text:xdc_runtime_Error_policyDefault__E)
                  8400df7c    00000004     edma3_drv_bios6_tda2xx_m4_c0_st_sample_pem4.oem4 (.text:ti_sysbios_knl_Task_SupportProxy_start__E)
                  8400df80    00000128     sysbios.aem4 : BIOS.obj (.text:ti_sysbios_hal_unicache_Cache_wbInv__E)
                  8400e0a8    00000128                  : BIOS.obj (.text:ti_sysbios_hal_unicache_Cache_wb__E)
                  8400e1d0    0000011c                  : BIOS.obj (.text:ti_sysbios_knl_Clock_Instance_init__E)
                  8400e2ec    00000004     edma3_drv_bios6_tda2xx_m4_c0_st_sample_pem4.oem4 (.text:ti_sysbios_knl_Task_SupportProxy_swap__E)
                  8400e2f0    0000011c     sysbios.aem4 : BIOS.obj (.text:ti_sysbios_knl_Swi_run__I)
                  8400e40c    00000100     edma3_lld_drv_sample.aem4 : sample_arm_init.oem4 (.text)
                  8400e50c    000000fc     rtsv7M4_T_le_eabi.lib : fd_mul_t2.obj (.text)
                  8400e608    000000f8     ti.targets.arm.rtsarm.aem4 : Startup.oem4 (.text:xdc_runtime_Startup_startMods__I)
                  8400e700    000000e8                                : Core-mem.oem4 (.text:xdc_runtime_Core_createObject__I)
                  8400e7e8    000000dc     rtsv7M4_T_le_eabi.lib : setvbuf.obj (.text)
                  8400e8c4    000000d0     dma_misc_test.oem4 (.text)
                  8400e994    000000d0     rtsv7M4_T_le_eabi.lib : s_scalbn.obj (.text)
                  8400ea64    00000004     ti.targets.arm.rtsarm.aem4 : Error.oem4 (.text:xdc_runtime_Error_getCode__E)
                  8400ea68    000000d0     sysbios.aem4 : BIOS.obj (.text:ti_sysbios_family_arm_ducati_GateDualCore_enter__E)
                  8400eb38    000000d0                  : BIOS.obj (.text:ti_sysbios_family_arm_m3_Hwi_Module_startup__E)
                  8400ec08    000000cc                  : m3_Hwi_asm.obj (.text:ti_sysbios_family_arm_m3_Hwi_dispatch__I)
                  8400ecd4    000000cc     ti.targets.arm.rtsarm.aem4 : Core-smem.oem4 (.text:xdc_runtime_Core_constructObject__I)
                  8400eda0    000000c8     rtsv7M4_T_le_eabi.lib : fflush.obj (.text)
                  8400ee68    000000c4     sysbios.aem4 : BIOS.obj (.text:ti_sysbios_knl_Swi_Instance_init__E)
                  8400ef2c    00000004     ti.targets.arm.rtsarm.aem4 : Error.oem4 (.text:xdc_runtime_Error_getSite__E)
                  8400ef30    000000c4     sysbios.aem4 : BIOS.obj (.text:ti_sysbios_knl_Task_schedule__I)
                  8400eff4    00000004     edma3_drv_bios6_tda2xx_m4_c0_st_sample_pem4.oem4 (.text:xdc_runtime_Startup_reset__I)
                  8400eff8    000000c0     sysbios.aem4 : BIOS.obj (.text:ti_sysbios_knl_Task_exit__E)
                  8400f0b8    000000bc                  : BIOS.obj (.text:ti_sysbios_family_arm_m3_Hwi_excDebugMon__I)
                  8400f174    00000004     edma3_drv_bios6_tda2xx_m4_c0_st_sample_pem4.oem4 (.text:xdc_runtime_System_SupportProxy_abort__E)
                  8400f178    000000bc     sysbios.aem4 : BIOS.obj (.text:ti_sysbios_family_arm_m3_Hwi_excHardFault__I)
                  8400f234    00000004     edma3_drv_bios6_tda2xx_m4_c0_st_sample_pem4.oem4 (.text:xdc_runtime_System_SupportProxy_exit__E)
                  8400f238    000000bc     sysbios.aem4 : BIOS.obj (.text:ti_sysbios_knl_Task_startCore__E)
                  8400f2f4    00000004     edma3_drv_bios6_tda2xx_m4_c0_st_sample_pem4.oem4 (.text:xdc_runtime_System_SupportProxy_putch__E)
                  8400f2f8    000000b4     sysbios.aem4 : BIOS.obj (.text:ti_sysbios_family_arm_ducati_Timer_startup__E)
                  8400f3ac    00000004     edma3_drv_bios6_tda2xx_m4_c0_st_sample_pem4.oem4 (.text:xdc_runtime_System_SupportProxy_ready__E)
                  8400f3b0    000000b4     sysbios.aem4 : BIOS.obj (.text:ti_sysbios_family_shared_vayu_IntXbar_initXbarRegs__I)
                  8400f464    00000004     ti.targets.arm.rtsarm.aem4 : System.oem4 (.text:xdc_runtime_System_abortStd__E)
                  8400f468    000000b4     sysbios.aem4 : BIOS.obj (.text:ti_sysbios_gates_GateMutex_enter__E)
                  8400f51c    00000004     ti.targets.arm.rtsarm.aem4 : System.oem4 (.text:xdc_runtime_System_aprintf_va__F)
                  8400f520    000000b0     sysbios.aem4 : BIOS.obj (.text:ti_sysbios_knl_Task_postInit__I)
                  8400f5d0    000000ac     rtsv7M4_T_le_eabi.lib : _io_perm.obj (.text)
                  8400f67c    00000004     ti.targets.arm.rtsarm.aem4 : System.oem4 (.text:xdc_runtime_System_asprintf_va__F)
                  8400f680    000000ac     sysbios.aem4 : BIOS.obj (.text:ti_sysbios_knl_Swi_post__E)
                  8400f72c    00000004     ti.targets.arm.rtsarm.aem4 : System.oem4 (.text:xdc_runtime_System_exitStd__E)
                  8400f730    000000a8     sysbios.aem4 : BIOS.obj (.text:ti_sysbios_knl_Task_blockI__E)
                  8400f7d8    000000a4                  : BIOS.obj (.text:ti_sysbios_knl_Clock_Instance_finalize__E)
                  8400f87c    000000a0     auto_init.aem4 : auto_init.oem4 (.text)
                  8400f91c    00000004     ti.targets.arm.rtsarm.aem4 : System.oem4 (.text:xdc_runtime_System_printf_va__F)
                  8400f920    000000a0     sysbios.aem4 : BIOS.obj (.text:ti_sysbios_family_arm_ducati_Timer_trigger__E)
                  8400f9c0    0000009c     rtsv7M4_T_le_eabi.lib : memcpy_t2.obj (.text)
                  8400fa5c    00000004     ti.targets.arm.rtsarm.aem4 : System.oem4 (.text:xdc_runtime_System_snprintf_va__F)
                  8400fa60    0000009c     sysbios.aem4 : BIOS.obj (.text:ti_sysbios_knl_Semaphore_Instance_init__E)
                  8400fafc    0000009a     ti.targets.arm.rtsarm.aem4 : Text.oem4 (.text:xdc_runtime_Text_putSite__E)
                  8400fb96    00000002     --HOLE-- [fill = 0]
                  8400fb98    00000098     rtsv7M4_T_le_eabi.lib : fclose.obj (.text)
                  8400fc30    00000098                           : fputc.obj (.text)
                  8400fcc8    00000098     ti.targets.arm.rtsarm.aem4 : Text.oem4 (.text:xdc_runtime_Text_putMod__E)
                  8400fd60    00000090     sysbios.aem4 : BIOS.obj (.text:ti_sysbios_family_arm_ducati_GateDualCore_Instance_init__E)
                  8400fdf0    00000090                  : BIOS.obj (.text:ti_sysbios_knl_Task_unblockI__E)
                  8400fe80    0000008c                  : BIOS.obj (.text:ti_sysbios_family_arm_m3_Hwi_Instance_init__E)
                  8400ff0c    00000004     ti.targets.arm.rtsarm.aem4 : System.oem4 (.text:xdc_runtime_System_sprintf_va__F)
                  8400ff10    00000088     sysbios.aem4 : BIOS.obj (.text:ti_sysbios_family_arm_ducati_Timer_setPeriod__E)
                  8400ff98    00000088                  : BIOS.obj (.text:ti_sysbios_family_arm_m3_Hwi_initNVIC__E)
                  84010020    00000086     rtsv7M4_T_le_eabi.lib : fd_cmp_t2.obj (.text:__aeabi_cdcmple)
                  840100a6    00000086                           : fd_cmp_t2.obj (.text:__aeabi_cdrcmple)
                  8401012c    00000004     --HOLE-- [fill = 0]
                  84010130    00000084     sysbios.aem4 : BIOS.obj (.text:ti_sysbios_family_arm_m3_Hwi_postInit__I)
                  840101b4    00000004     --HOLE-- [fill = 0]
                  840101b8    00000080                  : BIOS.obj (.text:ti_sysbios_family_shared_vayu_IntXbar_initIntXbar__I)
                  84010238    0000007c                  : BIOS.obj (.text:ti_sysbios_family_arm_ducati_GateDualCore_Module_startup__E)
                  840102b4    00000004     --HOLE-- [fill = 0]
                  840102b8    0000007c                  : BIOS.obj (.text:ti_sysbios_family_arm_ducati_Timer_getExpiredCounts__E)
                  84010334    0000007a     rtsv7M4_T_le_eabi.lib : memset_t2.obj (.text)
                  840103ae    00000002     --HOLE-- [fill = 0]
                  840103b0    00000078     sysbios.aem4 : BIOS.obj (.text:ti_sysbios_family_arm_ducati_Timer_start__E)
                  84010428    00000074                  : BIOS.obj (.text:ti_sysbios_knl_Clock_start__E)
                  8401049c    00000070     rtsv7M4_T_le_eabi.lib : printf.obj (.text)
                  8401050c    00000004     --HOLE-- [fill = 0]
                  84010510    00000070     sysbios.aem4 : BIOS.obj (.text:ti_sysbios_family_arm_ducati_Timer_setPeriodMicroSecs__E)
                  84010580    00000070     ti.targets.arm.rtsarm.aem4 : Error.oem4 (.text:xdc_runtime_Error_print__E)
                  840105f0    0000006d                                : System.oem4 (.text:xdc_runtime_System_formatNum__I)
                  8401065d    00000003     --HOLE-- [fill = 0]
                  84010660    0000006c     sysbios.aem4 : BIOS.obj (.text:ti_sysbios_knl_Swi_restoreHwi__E)
                  840106cc    0000006c     ti.targets.arm.rtsarm.aem4 : Memory.oem4 (.text:xdc_runtime_Memory_alloc__E)
                  84010738    00000068     rtsv7M4_T_le_eabi.lib : trgmsg.obj (.text)
                  840107a0    00000068     sysbios.aem4 : BIOS.obj (.text:ti_sysbios_family_arm_ducati_Timer_Module_startup__E)
                  84010808    00000066     ti.targets.arm.rtsarm.aem4 : Core-mem.oem4 (.text:xdc_runtime_Core_deleteObject__I)
                  8401086e    00000002     --HOLE-- [fill = 0]
                  84010870    00000064     rtsv7M4_T_le_eabi.lib : fseek.obj (.text)
                  840108d4    00000060     common.oem4 (.text)
                  84010934    00000004     --HOLE-- [fill = 0]
                  84010938    00000060     sysbios.aem4 : BIOS.obj (.text:ti_sysbios_family_arm_ducati_Timer_initDevice__I)
                  84010998    00000060                  : BIOS.obj (.text:ti_sysbios_knl_Clock_logTick__E)
                  840109f8    0000005c     rtsv7M4_T_le_eabi.lib : s_frexp.obj (.text)
                  84010a54    00000004     --HOLE-- [fill = 0]
                  84010a58    0000005c     sysbios.aem4 : BIOS.obj (.text:ti_sysbios_knl_Swi_schedule__I)
                  84010ab4    0000005b     ti.targets.arm.rtsarm.aem4 : Text.oem4 (.text:xdc_runtime_Text_putLab__E)
                  84010b0f    00000001     --HOLE-- [fill = 0]
                  84010b10    00000058     sysbios.aem4 : BIOS.obj (.text:ti_sysbios_heaps_HeapMem_alloc__E)
                  84010b68    00000054     edma3_lld_drv_sample.aem4 : sample_tda2xx_cfg.oem4 (.text)
                  84010bbc    00000054     rtsv7M4_T_le_eabi.lib : exit.obj (.text)
                  84010c10    00000054                           : ltoa.obj (.text)
                  84010c64    00000004     --HOLE-- [fill = 0]
                  84010c68    00000054     sysbios.aem4 : BIOS.obj (.text:ti_sysbios_knl_Swi_Instance_finalize__E)
                  84010cbc    00000054     ti.targets.arm.rtsarm.aem4 : Assert.oem4 (.text:xdc_runtime_Assert_raise__I)
                  84010d10    00000050                                : Startup.oem4 (.text:xdc_runtime_Startup_exec__E)
                  84010d60    00000050                                : Text.oem4 (.text:xdc_runtime_Text_visitRope2__I)
                  84010db0    0000004c     rtsv7M4_T_le_eabi.lib : atoi.obj (.text)
                  84010dfc    0000004c                           : cpy_tbl.obj (.text)
                  84010e48    0000004c     sysbios.aem4 : BIOS.obj (.text:ti_sysbios_family_arm_ducati_Timer_Instance_finalize__E)
                  84010e94    0000004c                  : m3_TaskSupport_asm.obj (.text:ti_sysbios_family_arm_m3_TaskSupport_buildTaskStack)
                  84010ee0    0000004c                  : BIOS.obj (.text:ti_sysbios_heaps_HeapMem_getStats__E)
                  84010f2c    00000004     --HOLE-- [fill = 0]
                  84010f30    0000004c                  : BIOS.obj (.text:ti_sysbios_knl_Swi_runLoop__I)
                  84010f7c    00000004     --HOLE-- [fill = 0]
                  84010f80    0000004c                  : BIOS.obj (.text:ti_sysbios_knl_Task_allBlockedFunction__I)
                  84010fcc    00000048     rtsv7M4_T_le_eabi.lib : fd_toi_t2.obj (.text)
                  84011014    00000004     --HOLE-- [fill = 0]
                  84011018    00000048     sysbios.aem4 : BIOS.obj (.text:ti_sysbios_family_arm_m3_Hwi_disableInterrupt__E)
                  84011060    00000048                  : BIOS.obj (.text:ti_sysbios_family_arm_m3_Hwi_enableInterrupt__E)
                  840110a8    00000048                  : BIOS.obj (.text:ti_sysbios_family_arm_m3_Hwi_excReserved__I)
                  840110f0    00000048                  : m3_Hwi_asm_switch.obj (.text:ti_sysbios_family_arm_m3_Hwi_initStacks__E)
                  84011138    00000048                  : BIOS.obj (.text:ti_sysbios_hal_unicache_Cache_wbInvAll__E)
                  84011180    00000046     ti.targets.arm.rtsarm.aem4 : Core-params.oem4 (.text:xdc_runtime_Core_assignParams__I)
                  840111c6    00000002     --HOLE-- [fill = 0]
                  840111c8    00000044     boot.aem4 : boot.oem4 (.text)
                  8401120c    00000004     --HOLE-- [fill = 0]
                  84011210    00000044     sysbios.aem4 : BIOS.obj (.text:ti_sysbios_family_arm_ducati_Timer_oneShotStub__E)
                  84011254    00000004     --HOLE-- [fill = 0]
                  84011258    00000044                  : BIOS.obj (.text:ti_sysbios_hal_unicache_Cache_wbAll__E)
                  8401129c    00000044     ti.targets.arm.rtsarm.aem4 : Error.oem4 (.text:xdc_runtime_Error_setX__E)
                  840112e0    00000044                                : SysMin.oem4 (.text:xdc_runtime_SysMin_flush__E)
                  84011324    00000044                                : Text.oem4 (.text:xdc_runtime_Text_xprintf__I)
                  84011368    00000040     rtsv7M4_T_le_eabi.lib : u_divt2.obj (.text)
                  840113a8    00000040     sysbios.aem4 : BIOS.obj (.text:ti_sysbios_family_arm_ducati_Timer_getFreq__E)
                  840113e8    00000040                  : BIOS.obj (.text:ti_sysbios_hal_unicache_Cache_seizeRegs__I)
                  84011428    0000003c                  : BIOS.obj (.text:ti_sysbios_family_arm_ducati_Core_Module_startup__E)
                  84011464    00000004     --HOLE-- [fill = 0]
                  84011468    0000003c                  : BIOS.obj (.text:ti_sysbios_family_arm_m3_Hwi_Instance_finalize__E)
                  840114a4    00000004     --HOLE-- [fill = 0]
                  840114a8    0000003c                  : BIOS.obj (.text:ti_sysbios_family_arm_m3_Hwi_excSvCall__I)
                  840114e4    00000004     --HOLE-- [fill = 0]
                  840114e8    0000003c                  : BIOS.obj (.text:ti_sysbios_hal_unicache_Cache_disable__E)
                  84011524    00000004     --HOLE-- [fill = 0]
                  84011528    0000003c                  : BIOS.obj (.text:ti_sysbios_hal_unicache_Cache_enable__E)
                  84011564    00000004     --HOLE-- [fill = 0]
                  84011568    0000003c                  : BIOS.obj (.text:ti_sysbios_heaps_HeapMem_init__I)
                  840115a4    00000004     --HOLE-- [fill = 0]
                  840115a8    0000003c                  : BIOS.obj (.text:ti_sysbios_knl_Swi_startup__E)
                  840115e4    00000004     --HOLE-- [fill = 0]
                  840115e8    00000038                  : BIOS.obj (.text:ti_sysbios_family_arm_m3_Hwi_excNoIsr__I)
                  84011620    00000038                  : BIOS.obj (.text:ti_sysbios_knl_Task_processVitalTaskFlag__I)
                  84011658    00000038     ti.targets.arm.rtsarm.aem4 : SysMin.oem4 (.text:xdc_runtime_SysMin_putch__E)
                  84011690    00000038                                : System.oem4 (.text:xdc_runtime_System_atexit__E)
                  840116c8    00000036     rtsv7M4_T_le_eabi.lib : strncpy.obj (.text)
                  840116fe    00000002     --HOLE-- [fill = 0]
                  84011700    00000034     sysbios.aem4 : BIOS.obj (.text:ti_sysbios_family_arm_m3_Hwi_excNmi__I)
                  84011734    00000034     ti.targets.arm.rtsarm.aem4 : Core-label.oem4 (.text:xdc_runtime_Core_assignLabel__I)
                  84011768    00000033                                : Text.oem4 (.text:xdc_runtime_Text_printVisFxn__I)
                  8401179b    00000005     --HOLE-- [fill = 0]
                  840117a0    00000032     sysbios.aem4 : BIOS.obj (.text:ti_sysbios_knl_Semaphore_pendTimeout__I)
                  840117d2    00000006     --HOLE-- [fill = 0]
                  840117d8    00000030                  : BIOS.obj (.text:ti_sysbios_family_arm_ducati_Timer_stop__E)
                  84011808    00000030                  : BIOS.obj (.text:ti_sysbios_heaps_HeapMem_free__E)
                  84011838    00000030     ti.targets.arm.rtsarm.aem4 : SysMin.oem4 (.text:xdc_runtime_SysMin_abort__E)
                  84011868    00000030                                : System.oem4 (.text:xdc_runtime_System_processAtExit__E)
                  84011898    0000002e     rtsv7M4_T_le_eabi.lib : i_tofd_t2.obj (.text)
                  840118c6    00000002     --HOLE-- [fill = 0]
                  840118c8    0000002c                           : assert.obj (.text)
                  840118f4    00000004     --HOLE-- [fill = 0]
                  840118f8    0000002c     sysbios.aem4 : BIOS.obj (.text:ti_sysbios_knl_Task_restore__E)
                  84011924    0000002c     ti.targets.arm.rtsarm.aem4 : Text.oem4 (.text:xdc_runtime_Text_cordText__E)
                  84011950    0000002a                                : System.oem4 (.text:xdc_runtime_System_putchar__I)
                  8401197a    00000006     --HOLE-- [fill = 0]
                  84011980    00000028     sysbios.aem4 : BIOS.obj (.text:ti_sysbios_hal_unicache_Cache_wait__E)
                  840119a8    00000028                  : BIOS.obj (.text:ti_sysbios_knl_Swi_Module_startup__E)
                  840119d0    00000026     ti.targets.arm.rtsarm.aem4 : System.oem4 (.text:xdc_runtime_System_avprintf__E)
                  840119f6    00000002     --HOLE-- [fill = 0]
                  840119f8    00000024     sysbios.aem4 : BIOS.obj (.text:ti_sysbios_family_arm_m3_Hwi_doTaskRestore__I)
                  84011a1c    00000004     --HOLE-- [fill = 0]
                  84011a20    00000024                  : BIOS.obj (.text:ti_sysbios_knl_Clock_Module_startup__E)
                  84011a44    00000024     ti.targets.arm.rtsarm.aem4 : System.oem4 (.text:xdc_runtime_System_vprintf__E)
                  84011a68    00000020     rtsv7M4_T_le_eabi.lib : memchr.obj (.text)
                  84011a88    00000020     sysbios.aem4 : BIOS.obj (.text:ti_sysbios_family_arm_ducati_Timer_getCount__E)
                  84011aa8    00000020                  : m3_Hwi_asm.obj (.text:ti_sysbios_family_arm_m3_Hwi_excHandlerAsm__I)
                  84011ac8    00000020                  : BIOS.obj (.text:ti_sysbios_family_arm_m3_Hwi_excHandler__I)
                  84011ae8    00000020                  : BIOS.obj (.text:ti_sysbios_hal_Hwi_Instance_init__E)
                  84011b08    00000020                  : BIOS.obj (.text:ti_sysbios_knl_Idle_run__E)
                  84011b28    00000020     ti.targets.arm.rtsarm.aem4 : Registry.oem4 (.text:xdc_runtime_Registry_findById__E)
                  84011b48    00000020                                : SysMin.oem4 (.text:xdc_runtime_SysMin_Module_startup__E)
                  84011b68    0000001e     sysbios.aem4 : m3_Hwi_asm_switch.obj (.text:ti_sysbios_family_xxx_Hwi_switchAndRunFunc)
                  84011b86    0000001c     rtsv7M4_T_le_eabi.lib : memccpy.obj (.text)
                  84011ba2    00000006     --HOLE-- [fill = 0]
                  84011ba8    0000001c     sysbios.aem4 : BIOS.obj (.text:ti_sysbios_family_arm_ducati_Timer_periodicStub__E)
                  84011bc4    00000004     --HOLE-- [fill = 0]
                  84011bc8    0000001c                  : BIOS.obj (.text:ti_sysbios_family_arm_m3_TaskSupport_start__E)
                  84011be4    00000004     --HOLE-- [fill = 0]
                  84011be8    0000001c                  : BIOS.obj (.text:ti_sysbios_gates_GateMutex_Instance_init__E)
                  84011c04    00000004     --HOLE-- [fill = 0]
                  84011c08    0000001c                  : BIOS.obj (.text:ti_sysbios_knl_Task_enter__I)
                  84011c24    0000001c     ti.targets.arm.rtsarm.aem4 : Error.oem4 (.text:xdc_runtime_Error_check__E)
                  84011c40    0000001c                                : Error.oem4 (.text:xdc_runtime_Error_raiseX__E)
                  84011c5c    0000001c                                : Memory.oem4 (.text:xdc_runtime_Memory_valloc__E)
                  84011c78    0000001c                                : SysMin.oem4 (.text:xdc_runtime_SysMin_exit__E)
                  84011c94    0000001c                                : System.oem4 (.text:xdc_runtime_System_abort__E)
                  84011cb0    0000001a     sysbios.aem4 : m3_Hwi_asm.obj (.text:ti_sysbios_family_arm_m3_Hwi_pendSV__I)
                  84011cca    00000002     --HOLE-- [fill = 0]
                  84011ccc    00000018     rtsv7M4_T_le_eabi.lib : args_main.obj (.text)
                  84011ce4    00000018                           : strcmp.obj (.text)
                  84011cfc    00000004     --HOLE-- [fill = 0]
                  84011d00    00000018     sysbios.aem4 : BIOS.obj (.text:ti_sysbios_gates_GateMutex_leave__E)
                  84011d18    00000018     ti.targets.arm.rtsarm.aem4 : Error.oem4 (.text:xdc_runtime_Error_init__E)
                  84011d30    00000018                                : System.oem4 (.text:xdc_runtime_System_exit__E)
                  84011d48    00000018                                : Text.oem4 (.text:xdc_runtime_Text_ropeText__E)
                  84011d60    00000016     rtsv7M4_T_le_eabi.lib : strchr.obj (.text)
                  84011d76    00000016     ti.targets.arm.rtsarm.aem4 : System.oem4 (.text:xdc_runtime_System_avsprintf__E)
                  84011d8c    00000016                                : System.oem4 (.text:xdc_runtime_System_vsprintf__E)
                  84011da2    00000002     --HOLE-- [fill = 0]
                  84011da4    00000014     rtsv7M4_T_le_eabi.lib : _lock.obj (.text)
                  84011db8    00000014                           : strcpy.obj (.text)
                  84011dcc    00000014                           : strlen.obj (.text)
                  84011de0    00000014     sysbios.aem4 : BIOS.obj (.text:ti_sysbios_family_arm_m3_Hwi_switchFromBootStack__E)
                  84011df4    00000004     --HOLE-- [fill = 0]
                  84011df8    00000012                  : BIOS.obj (.text:ti_sysbios_family_arm_ducati_Timer_setFunc__E)
                  84011e0a    00000006     --HOLE-- [fill = 0]
                  84011e10    00000012                  : BIOS.obj (.text:ti_sysbios_hal_Hwi_Module_startup__E)
                  84011e22    00000006     --HOLE-- [fill = 0]
                  84011e28    00000010                  : BIOS.obj (.text:ti_sysbios_BIOS_setThreadType__E)
                  84011e38    00000010                  : BIOS.obj (.text:ti_sysbios_BIOS_start__E)
                  84011e48    00000010                  : m3_TaskSupport_asm.obj (.text:ti_sysbios_family_arm_m3_TaskSupport_glue)
                  84011e58    00000010                  : m3_TaskSupport_asm.obj (.text:ti_sysbios_family_arm_m3_TaskSupport_swap__E)
                  84011e68    00000010                  : BIOS.obj (.text:ti_sysbios_gates_GateMutex_Instance_finalize__E)
                  84011e78    00000010                  : BIOS.obj (.text:ti_sysbios_knl_Semaphore_Instance_finalize__E)
                  84011e88    00000010                  : BIOS.obj (.text:ti_sysbios_knl_Swi_disable__E)
                  84011e98    00000010                  : BIOS.obj (.text:ti_sysbios_knl_Task_disable__E)
                  84011ea8    00000010     ti.targets.arm.rtsarm.aem4 : Gate.oem4 (.text:xdc_runtime_Gate_leaveSystem__E)
                  84011eb8    00000010                                : Memory.oem4 (.text:xdc_runtime_Memory_free__E)
                  84011ec8    00000010                                : SysMin.oem4 (.text:xdc_runtime_SysMin_ready__E)
                  84011ed8    00000010                                : System.oem4 (.text:xdc_runtime_System_vsnprintf__E)
                  84011ee8    0000000e     sysbios.aem4 : BIOS.obj (.text:ti_sysbios_knl_Idle_loop__E)
                  84011ef6    00000002     --HOLE-- [fill = 0]
                  84011ef8    0000000e                  : BIOS.obj (.text:ti_sysbios_knl_Queue_empty__E)
                  84011f06    00000002     --HOLE-- [fill = 0]
                  84011f08    0000000c                  : BIOS.obj (.text:ti_sysbios_family_arm_ducati_Core_getIpuId__E)
                  84011f14    00000004     --HOLE-- [fill = 0]
                  84011f18    0000000c                  : BIOS.obj (.text:ti_sysbios_family_arm_ducati_Core_startCore1__I)
                  84011f24    00000004     --HOLE-- [fill = 0]
                  84011f28    0000000c                  : BIOS.obj (.text:ti_sysbios_family_arm_ducati_GateDualCore_leave__E)
                  84011f34    00000004     --HOLE-- [fill = 0]
                  84011f38    0000000c                  : BIOS.obj (.text:ti_sysbios_family_arm_m3_Hwi_disableFxn__E)
                  84011f44    00000004     --HOLE-- [fill = 0]
                  84011f48    0000000c                  : BIOS.obj (.text:ti_sysbios_family_arm_m3_TaskSupport_getStackAlignment__E)
                  84011f54    00000004     --HOLE-- [fill = 0]
                  84011f58    0000000c                  : BIOS.obj (.text:ti_sysbios_gates_GateHwi_enter__E)
                  84011f64    0000000c     ti.targets.arm.rtsarm.aem4 : Gate.oem4 (.text:xdc_runtime_Gate_enterSystem__E)
                  84011f70    0000000c                                : Memory.oem4 (.text:xdc_runtime_Memory_calloc__E)
                  84011f7c    0000000c                                : Memory.oem4 (.text:xdc_runtime_Memory_getMaxDefaultTypeAlign__E)
                  84011f88    0000000c                                : Startup.oem4 (.text:xdc_runtime_Startup_rtsDone__E)
                  84011f94    0000000a     sysbios.aem4 : m3_IntrinsicsSupport_asm.obj (.text:ti_sysbios_family_arm_m3_IntrinsicsSupport_maxbit__E)
                  84011f9e    00000002     --HOLE-- [fill = 0]
                  84011fa0    0000000a                  : BIOS.obj (.text:ti_sysbios_hal_Hwi_Instance_finalize__E)
                  84011faa    00000008     rtsv7M4_T_le_eabi.lib : s_copysign.obj (.text)
                  84011fb2    00000006     --HOLE-- [fill = 0]
                  84011fb8    00000008     sysbios.aem4 : BIOS.obj (.text:ti_sysbios_family_arm_ducati_Timer_getFunc__E)
                  84011fc0    00000008                  : BIOS.obj (.text:ti_sysbios_family_arm_m3_Hwi_doSwiRestore__I)
                  84011fc8    00000008                  : BIOS.obj (.text:ti_sysbios_family_arm_m3_Hwi_getFunc__E)
                  84011fd0    00000008                  : BIOS.obj (.text:ti_sysbios_family_arm_m3_Hwi_getHookContext__E)
                  84011fd8    00000008                  : BIOS.obj (.text:ti_sysbios_family_arm_m3_Hwi_setHookContext__E)
                  84011fe0    00000008                  : BIOS.obj (.text:ti_sysbios_family_arm_m3_Hwi_startup__E)
                  84011fe8    00000006                  : BIOS.obj (.text:ti_sysbios_family_arm_m3_Hwi_restoreFxn__E)
                  84011fee    00000002     --HOLE-- [fill = 0]
                  84011ff0    00000006                  : BIOS.obj (.text:ti_sysbios_family_arm_m3_Hwi_setFunc__E)
                  84011ff6    00000002     --HOLE-- [fill = 0]
                  84011ff8    00000006                  : BIOS.obj (.text:ti_sysbios_gates_GateHwi_leave__E)
                  84011ffe    00000002     --HOLE-- [fill = 0]
                  84012000    00000006                  : BIOS.obj (.text:ti_sysbios_heaps_HeapMem_isBlocking__E)
                  84012006    00000002     --HOLE-- [fill = 0]
                  84012008    00000006                  : BIOS.obj (.text:ti_sysbios_knl_Queue_Instance_init__E)
                  8401200e    00000002     --HOLE-- [fill = 0]
                  84012010    00000006                  : BIOS.obj (.text:ti_sysbios_knl_Task_enable__E)
                  84012016    00000002     --HOLE-- [fill = 0]
                  84012018    00000004                  : BIOS.obj (.text:ti_sysbios_family_arm_ducati_GateDualCore_query__E)
                  8401201c    00000004     --HOLE-- [fill = 0]
                  84012020    00000004                  : BIOS.obj (.text:ti_sysbios_family_arm_ducati_Timer_getCurrentTick__E)
                  84012024    00000004     --HOLE-- [fill = 0]
                  84012028    00000004                  : BIOS.obj (.text:ti_sysbios_family_arm_ducati_Timer_getExpiredTicks__E)
                  8401202c    00000004     --HOLE-- [fill = 0]
                  84012030    00000004                  : BIOS.obj (.text:ti_sysbios_family_arm_ducati_Timer_getMaxTicks__E)
                  84012034    00000004     --HOLE-- [fill = 0]
                  84012038    00000004                  : BIOS.obj (.text:ti_sysbios_family_arm_ducati_Timer_getPeriod__E)
                  8401203c    00000004     --HOLE-- [fill = 0]
                  84012040    00000004                  : BIOS.obj (.text:ti_sysbios_family_arm_m3_Hwi_getIrp__E)
                  84012044    00000004     --HOLE-- [fill = 0]
                  84012048    00000004                  : BIOS.obj (.text:ti_sysbios_gates_GateHwi_query__E)
                  8401204c    00000004     --HOLE-- [fill = 0]
                  84012050    00000004                  : BIOS.obj (.text:ti_sysbios_gates_GateMutex_query__E)
                  84012054    00000004     --HOLE-- [fill = 0]
                  84012058    00000004                  : BIOS.obj (.text:ti_sysbios_hal_Cache_inv__E)
                  8401205c    00000004     --HOLE-- [fill = 0]
                  84012060    00000004                  : BIOS.obj (.text:ti_sysbios_hal_Cache_wb__E)
                  84012064    00000004     --HOLE-- [fill = 0]
                  84012068    00000004                  : BIOS.obj (.text:ti_sysbios_hal_Hwi_disableInterrupt__E)
                  8401206c    00000004     --HOLE-- [fill = 0]
                  84012070    00000004                  : BIOS.obj (.text:ti_sysbios_hal_Hwi_enableInterrupt__E)
                  84012074    00000004     --HOLE-- [fill = 0]
                  84012078    00000004                  : BIOS.obj (.text:ti_sysbios_hal_Hwi_startup__E)
                  8401207c    00000004     --HOLE-- [fill = 0]
                  84012080    00000004                  : BIOS.obj (.text:ti_sysbios_knl_Task_startup__E)
                  84012084    00000004     --HOLE-- [fill = 0]
                  84012088    00000002                  : BIOS.obj (.text:ti_sysbios_BIOS_linkedWithIncorrectBootLibrary__E)
                  8401208a    00000006     --HOLE-- [fill = 0]
                  84012090    00000002                  : BIOS.obj (.text:ti_sysbios_family_arm_ducati_Timer_setNextTick__E)
                  84012092    00000006     --HOLE-- [fill = 0]
                  84012098    00000002                  : BIOS.obj (.text:ti_sysbios_gates_GateHwi_Instance_init__E)

.const     0    8503997c    00002b02     
                  8503997c    00001bee     edma3_drv_bios6_tda2xx_m4_c0_st_sample_pem4.oem4 (.const:xdc_runtime_Text_charTab__A)
                  8503b56a    00000002     edma3_drv_bios6_tda2xx_m4_c0_st_sample_pem4.oem4 (.const:ti_sysbios_family_arm_ducati_Core_Module__id__C)
                  8503b56c    000004b8     edma3_drv_bios6_tda2xx_m4_c0_st_sample_pem4.oem4 (.const:ti_sysbios_hal_ammu_AMMU_mmuInitConfig__C)
                  8503ba24    00000101     rtsv7M4_T_le_eabi.lib : ctype.obj (.const:.string:_ctypes_)
                  8503bb25    00000001     edma3_drv_bios6_tda2xx_m4_c0_st_sample_pem4.oem4 (.const:xdc_runtime_Error_policy__C)
                  8503bb26    000000d0     edma3_drv_bios6_tda2xx_m4_c0_st_sample_pem4.oem4 (.const:xdc_runtime_Text_nodeTab__A)
                  8503bbf6    00000002     edma3_drv_bios6_tda2xx_m4_c0_st_sample_pem4.oem4 (.const:ti_sysbios_family_arm_ducati_GateDualCore_Module__id__C)
                  8503bbf8    00000048     edma3_drv_bios6_tda2xx_m4_c0_st_sample_pem4.oem4 (.const:.string)
                  8503bc40    0000003c     edma3_drv_bios6_tda2xx_m4_c0_st_sample_pem4.oem4 (.const:ti_sysbios_knl_Task_Object__PARAMS__C)
                  8503bc7c    00000038     edma3_drv_bios6_tda2xx_m4_c0_st_sample_pem4.oem4 (.const:ti_sysbios_hal_unicache_Cache_Module__FXNS__C)
                  8503bcb4    00000035     edma3_lld_drv.aem4 : edma3_drv_basic.oem4 (.const:.string:edma3LldVersionStr)
                  8503bce9    00000001     --HOLE-- [fill = 0]
                  8503bcea    00000002     edma3_drv_bios6_tda2xx_m4_c0_st_sample_pem4.oem4 (.const:ti_sysbios_family_arm_ducati_GateDualCore_initGates__C)
                  8503bcec    00000034     edma3_drv_bios6_tda2xx_m4_c0_st_sample_pem4.oem4 (.const:ti_sysbios_family_arm_ducati_Timer_Object__PARAMS__C)
                  8503bd20    00000030     edma3_drv_bios6_tda2xx_m4_c0_st_sample_pem4.oem4 (.const:ti_sysbios_family_arm_m3_Hwi_Object__PARAMS__C)
                  8503bd50    0000002c     edma3_drv_bios6_tda2xx_m4_c0_st_sample_pem4.oem4 (.const:ti_sysbios_hal_Hwi_Object__PARAMS__C)
                  8503bd7c    0000002c     edma3_drv_bios6_tda2xx_m4_c0_st_sample_pem4.oem4 (.const:xdc_runtime_SysMin_Module__FXNS__C)
                  8503bda8    00000028     edma3_drv_bios6_tda2xx_m4_c0_st_sample_pem4.oem4 (.const:ti_sysbios_heaps_HeapMem_Module__FXNS__C)
                  8503bdd0    00000028     edma3_drv_bios6_tda2xx_m4_c0_st_sample_pem4.oem4 (.const:ti_sysbios_knl_Swi_Object__PARAMS__C)
                  8503bdf8    00000028     edma3_drv_bios6_tda2xx_m4_c0_st_sample_pem4.oem4 (.const:xdc_runtime_Startup_sfxnTab__A)
                  8503be20    00000024     edma3_drv_bios6_tda2xx_m4_c0_st_sample_pem4.oem4 (.const:ti_sysbios_family_arm_ducati_GateDualCore_Module__FXNS__C)
                  8503be44    00000024     edma3_drv_bios6_tda2xx_m4_c0_st_sample_pem4.oem4 (.const:ti_sysbios_gates_GateHwi_Module__FXNS__C)
                  8503be68    00000024     edma3_drv_bios6_tda2xx_m4_c0_st_sample_pem4.oem4 (.const:ti_sysbios_gates_GateMutex_Module__FXNS__C)
                  8503be8c    00000024     edma3_drv_bios6_tda2xx_m4_c0_st_sample_pem4.oem4 (.const:ti_sysbios_heaps_HeapMem_Object__PARAMS__C)
                  8503beb0    00000024     edma3_drv_bios6_tda2xx_m4_c0_st_sample_pem4.oem4 (.const:ti_sysbios_knl_Clock_Object__PARAMS__C)
                  8503bed4    00000024     edma3_drv_bios6_tda2xx_m4_c0_st_sample_pem4.oem4 (.const:ti_sysbios_knl_Semaphore_Object__PARAMS__C)
                  8503bef8    00000020     dma_link_test.oem4 (.const:$P$T0$1)
                  8503bf18    00000020     dma_ping_pong_test.oem4 (.const:$P$T0$1)
                  8503bf38    00000020     dma_test.oem4 (.const:$P$T0$1)
                  8503bf58    00000020     edma3_drv_bios6_tda2xx_m4_c0_st_sample_pem4.oem4 (.const:ti_sysbios_family_arm_ducati_GateDualCore_Object__DESC__C)
                  8503bf78    00000020     edma3_drv_bios6_tda2xx_m4_c0_st_sample_pem4.oem4 (.const:ti_sysbios_family_arm_ducati_Timer_Object__DESC__C)
                  8503bf98    00000020     edma3_drv_bios6_tda2xx_m4_c0_st_sample_pem4.oem4 (.const:ti_sysbios_family_arm_m3_Hwi_Object__DESC__C)
                  8503bfb8    00000020     edma3_drv_bios6_tda2xx_m4_c0_st_sample_pem4.oem4 (.const:ti_sysbios_gates_GateHwi_Object__DESC__C)
                  8503bfd8    00000020     edma3_drv_bios6_tda2xx_m4_c0_st_sample_pem4.oem4 (.const:ti_sysbios_gates_GateMutex_Object__DESC__C)
                  8503bff8    00000020     edma3_drv_bios6_tda2xx_m4_c0_st_sample_pem4.oem4 (.const:ti_sysbios_hal_Hwi_Object__DESC__C)
                  8503c018    00000020     edma3_drv_bios6_tda2xx_m4_c0_st_sample_pem4.oem4 (.const:ti_sysbios_heaps_HeapMem_Object__DESC__C)
                  8503c038    00000020     edma3_drv_bios6_tda2xx_m4_c0_st_sample_pem4.oem4 (.const:ti_sysbios_knl_Clock_Object__DESC__C)
                  8503c058    00000020     edma3_drv_bios6_tda2xx_m4_c0_st_sample_pem4.oem4 (.const:ti_sysbios_knl_Queue_Object__DESC__C)
                  8503c078    00000020     edma3_drv_bios6_tda2xx_m4_c0_st_sample_pem4.oem4 (.const:ti_sysbios_knl_Semaphore_Object__DESC__C)
                  8503c098    00000020     edma3_drv_bios6_tda2xx_m4_c0_st_sample_pem4.oem4 (.const:ti_sysbios_knl_Swi_Object__DESC__C)
                  8503c0b8    00000020     edma3_drv_bios6_tda2xx_m4_c0_st_sample_pem4.oem4 (.const:ti_sysbios_knl_Task_Object__DESC__C)
                  8503c0d8    0000001c     edma3_drv_bios6_tda2xx_m4_c0_st_sample_pem4.oem4 (.const:ti_sysbios_family_arm_ducati_GateDualCore_Object__PARAMS__C)
                  8503c0f4    0000001c     edma3_drv_bios6_tda2xx_m4_c0_st_sample_pem4.oem4 (.const:ti_sysbios_family_arm_m3_IntrinsicsSupport_Module__FXNS__C)
                  8503c110    00000018     edma3_drv_bios6_tda2xx_m4_c0_st_sample_pem4.oem4 (.const:ti_sysbios_gates_GateHwi_Object__PARAMS__C)
                  8503c128    00000018     edma3_drv_bios6_tda2xx_m4_c0_st_sample_pem4.oem4 (.const:ti_sysbios_gates_GateMutex_Object__PARAMS__C)
                  8503c140    00000018     edma3_drv_bios6_tda2xx_m4_c0_st_sample_pem4.oem4 (.const:ti_sysbios_knl_Queue_Object__PARAMS__C)
                  8503c158    00000014     edma3_drv_bios6_tda2xx_m4_c0_st_sample_pem4.oem4 (.const:xdc_runtime_Startup_sfxnRts__A)
                  8503c16c    0000000c     edma3_drv_bios6_tda2xx_m4_c0_st_sample_pem4.oem4 (.const:xdc_runtime_Startup_firstFxns__A)
                  8503c178    00000008     edma3_lld_drv_sample.aem4 : sample_tda2xx_cfg.oem4 (.const)
                  8503c180    00000008     edma3_drv_bios6_tda2xx_m4_c0_st_sample_pem4.oem4 (.const:ti_sysbios_family_arm_m3_Hwi_excHookFuncs__A)
                  8503c188    00000008     edma3_drv_bios6_tda2xx_m4_c0_st_sample_pem4.oem4 (.const:ti_sysbios_knl_Idle_funcList__C)
                  8503c190    00000008     edma3_drv_bios6_tda2xx_m4_c0_st_sample_pem4.oem4 (.const:xdc_runtime_Startup_firstFxns__C)
                  8503c198    00000008     edma3_drv_bios6_tda2xx_m4_c0_st_sample_pem4.oem4 (.const:xdc_runtime_Startup_lastFxns__C)
                  8503c1a0    00000004     edma3_lld_rm.aem4 : edma3_rm_gbl_data.oem4 (.const)
                  8503c1a4    00000004     edma3_drv_bios6_tda2xx_m4_c0_st_sample_pem4.oem4 (.const:ti_sysbios_family_arm_ducati_Core_E_mismatchedIds__C)
                  8503c1a8    00000004     edma3_drv_bios6_tda2xx_m4_c0_st_sample_pem4.oem4 (.const:ti_sysbios_family_arm_ducati_Core_id__C)
                  8503c1ac    00000004     edma3_drv_bios6_tda2xx_m4_c0_st_sample_pem4.oem4 (.const:ti_sysbios_family_arm_ducati_Core_ipuId__C)
                  8503c1b0    00000004     edma3_drv_bios6_tda2xx_m4_c0_st_sample_pem4.oem4 (.const:ti_sysbios_family_arm_ducati_GateDualCore_A_nestedEnter__C)
                  8503c1b4    00000004     edma3_drv_bios6_tda2xx_m4_c0_st_sample_pem4.oem4 (.const:ti_sysbios_family_arm_ducati_GateDualCore_E_gateInUse__C)
                  8503c1b8    00000004     edma3_drv_bios6_tda2xx_m4_c0_st_sample_pem4.oem4 (.const:ti_sysbios_family_arm_ducati_GateDualCore_E_invalidIndex__C)
                  8503c1bc    00000004     edma3_drv_bios6_tda2xx_m4_c0_st_sample_pem4.oem4 (.const:ti_sysbios_family_arm_ducati_GateDualCore_Module__diagsEnabled__C)
                  8503c1c0    00000004     edma3_drv_bios6_tda2xx_m4_c0_st_sample_pem4.oem4 (.const:ti_sysbios_family_arm_ducati_GateDualCore_Module__diagsIncluded__C)
                  8503c1c4    00000004     edma3_drv_bios6_tda2xx_m4_c0_st_sample_pem4.oem4 (.const:ti_sysbios_family_arm_ducati_GateDualCore_Module__diagsMask__C)
                  8503c1c8    00000004     edma3_drv_bios6_tda2xx_m4_c0_st_sample_pem4.oem4 (.const:ti_sysbios_family_arm_ducati_GateDualCore_Object__count__C)
                  8503c1cc    00000004     edma3_drv_bios6_tda2xx_m4_c0_st_sample_pem4.oem4 (.const:ti_sysbios_family_arm_ducati_GateDualCore_numGates__C)
                  8503c1d0    00000004     edma3_drv_bios6_tda2xx_m4_c0_st_sample_pem4.oem4 (.const:ti_sysbios_family_arm_ducati_Timer_E_cannotSupport__C)
                  8503c1d4    00000004     edma3_drv_bios6_tda2xx_m4_c0_st_sample_pem4.oem4 (.const:ti_sysbios_family_arm_ducati_Timer_E_invalidTimer__C)
                  8503c1d8    00000004     edma3_drv_bios6_tda2xx_m4_c0_st_sample_pem4.oem4 (.const:ti_sysbios_family_arm_ducati_Timer_E_notAvailable__C)
                  8503c1dc    00000004     edma3_drv_bios6_tda2xx_m4_c0_st_sample_pem4.oem4 (.const:ti_sysbios_family_arm_ducati_Timer_anyMask__C)
                  8503c1e0    00000004     edma3_drv_bios6_tda2xx_m4_c0_st_sample_pem4.oem4 (.const:ti_sysbios_family_arm_ducati_Timer_startupNeeded__C)
                  8503c1e4    00000004     edma3_drv_bios6_tda2xx_m4_c0_st_sample_pem4.oem4 (.const:ti_sysbios_family_arm_m3_Hwi_E_NMI__C)
                  8503c1e8    00000004     edma3_drv_bios6_tda2xx_m4_c0_st_sample_pem4.oem4 (.const:ti_sysbios_family_arm_m3_Hwi_E_alreadyDefined__C)
                  8503c1ec    00000004     edma3_drv_bios6_tda2xx_m4_c0_st_sample_pem4.oem4 (.const:ti_sysbios_family_arm_m3_Hwi_E_busFault__C)
                  8503c1f0    00000004     edma3_drv_bios6_tda2xx_m4_c0_st_sample_pem4.oem4 (.const:ti_sysbios_family_arm_m3_Hwi_E_debugMon__C)
                  8503c1f4    00000004     edma3_drv_bios6_tda2xx_m4_c0_st_sample_pem4.oem4 (.const:ti_sysbios_family_arm_m3_Hwi_E_hardFault__C)
                  8503c1f8    00000004     edma3_drv_bios6_tda2xx_m4_c0_st_sample_pem4.oem4 (.const:ti_sysbios_family_arm_m3_Hwi_E_memFault__C)
                  8503c1fc    00000004     edma3_drv_bios6_tda2xx_m4_c0_st_sample_pem4.oem4 (.const:ti_sysbios_family_arm_m3_Hwi_E_noIsr__C)
                  8503c200    00000004     edma3_drv_bios6_tda2xx_m4_c0_st_sample_pem4.oem4 (.const:ti_sysbios_family_arm_m3_Hwi_E_reserved__C)
                  8503c204    00000004     edma3_drv_bios6_tda2xx_m4_c0_st_sample_pem4.oem4 (.const:ti_sysbios_family_arm_m3_Hwi_E_svCall__C)
                  8503c208    00000004     edma3_drv_bios6_tda2xx_m4_c0_st_sample_pem4.oem4 (.const:ti_sysbios_family_arm_m3_Hwi_E_usageFault__C)
                  8503c20c    00000004     edma3_drv_bios6_tda2xx_m4_c0_st_sample_pem4.oem4 (.const:ti_sysbios_family_arm_m3_Hwi_LD_end__C)
                  8503c210    00000004     edma3_drv_bios6_tda2xx_m4_c0_st_sample_pem4.oem4 (.const:ti_sysbios_family_arm_m3_Hwi_LM_begin__C)
                  8503c214    00000004     edma3_drv_bios6_tda2xx_m4_c0_st_sample_pem4.oem4 (.const:ti_sysbios_family_arm_m3_Hwi_Module__diagsEnabled__C)
                  8503c218    00000004     edma3_drv_bios6_tda2xx_m4_c0_st_sample_pem4.oem4 (.const:ti_sysbios_family_arm_m3_Hwi_Module__diagsIncluded__C)
                  8503c21c    00000004     edma3_drv_bios6_tda2xx_m4_c0_st_sample_pem4.oem4 (.const:ti_sysbios_family_arm_m3_Hwi_Module__diagsMask__C)
                  8503c220    00000004     edma3_drv_bios6_tda2xx_m4_c0_st_sample_pem4.oem4 (.const:ti_sysbios_family_arm_m3_Hwi_Module__loggerFxn1__C)
                  8503c224    00000004     edma3_drv_bios6_tda2xx_m4_c0_st_sample_pem4.oem4 (.const:ti_sysbios_family_arm_m3_Hwi_Module__loggerFxn8__C)
                  8503c228    00000004     edma3_drv_bios6_tda2xx_m4_c0_st_sample_pem4.oem4 (.const:ti_sysbios_family_arm_m3_Hwi_Module__loggerObj__C)
                  8503c22c    00000004     edma3_drv_bios6_tda2xx_m4_c0_st_sample_pem4.oem4 (.const:ti_sysbios_family_arm_m3_Hwi_NUM_INTERRUPTS__C)
                  8503c230    00000004     edma3_drv_bios6_tda2xx_m4_c0_st_sample_pem4.oem4 (.const:ti_sysbios_family_arm_m3_Hwi_Object__count__C)
                  8503c234    00000004     edma3_drv_bios6_tda2xx_m4_c0_st_sample_pem4.oem4 (.const:ti_sysbios_family_arm_m3_Hwi_ccr__C)
                  8503c238    00000004     edma3_drv_bios6_tda2xx_m4_c0_st_sample_pem4.oem4 (.const:ti_sysbios_family_arm_m3_Hwi_excHandlerFunc__C)
                  8503c23c    00000004     edma3_drv_bios6_tda2xx_m4_c0_st_sample_pem4.oem4 (.const:ti_sysbios_family_arm_m3_Hwi_excHookFuncs__C)
                  8503c240    00000004     edma3_drv_bios6_tda2xx_m4_c0_st_sample_pem4.oem4 (.const:ti_sysbios_family_arm_m3_Hwi_nullIsrFunc__C)
                  8503c244    00000004     edma3_drv_bios6_tda2xx_m4_c0_st_sample_pem4.oem4 (.const:ti_sysbios_family_arm_m3_Hwi_priGroup__C)
                  8503c248    00000004     edma3_drv_bios6_tda2xx_m4_c0_st_sample_pem4.oem4 (.const:ti_sysbios_family_arm_m3_TaskSupport_stackAlignment__C)
                  8503c24c    00000004     edma3_drv_bios6_tda2xx_m4_c0_st_sample_pem4.oem4 (.const:ti_sysbios_family_shared_vayu_IntXbar_A_badBenelliIpuId__C)
                  8503c250    00000004     edma3_drv_bios6_tda2xx_m4_c0_st_sample_pem4.oem4 (.const:ti_sysbios_family_shared_vayu_IntXbar_A_badBenelliXbarInstanceNum__C)
                  8503c254    00000004     edma3_drv_bios6_tda2xx_m4_c0_st_sample_pem4.oem4 (.const:ti_sysbios_family_shared_vayu_IntXbar_A_badIntSourceIdx__C)
                  8503c258    00000004     edma3_drv_bios6_tda2xx_m4_c0_st_sample_pem4.oem4 (.const:ti_sysbios_family_shared_vayu_IntXbar_Module__diagsEnabled__C)
                  8503c25c    00000004     edma3_drv_bios6_tda2xx_m4_c0_st_sample_pem4.oem4 (.const:ti_sysbios_family_shared_vayu_IntXbar_Module__diagsIncluded__C)
                  8503c260    00000004     edma3_drv_bios6_tda2xx_m4_c0_st_sample_pem4.oem4 (.const:ti_sysbios_family_shared_vayu_IntXbar_Module__diagsMask__C)
                  8503c264    00000004     edma3_drv_bios6_tda2xx_m4_c0_st_sample_pem4.oem4 (.const:ti_sysbios_family_shared_vayu_IntXbar_mmrBaseAddr__C)
                  8503c268    00000004     edma3_drv_bios6_tda2xx_m4_c0_st_sample_pem4.oem4 (.const:ti_sysbios_gates_GateMutex_A_badContext__C)
                  8503c26c    00000004     edma3_drv_bios6_tda2xx_m4_c0_st_sample_pem4.oem4 (.const:ti_sysbios_gates_GateMutex_Instance_State_sem__O)
                  8503c270    00000004     edma3_drv_bios6_tda2xx_m4_c0_st_sample_pem4.oem4 (.const:ti_sysbios_gates_GateMutex_Module__diagsEnabled__C)
                  8503c274    00000004     edma3_drv_bios6_tda2xx_m4_c0_st_sample_pem4.oem4 (.const:ti_sysbios_gates_GateMutex_Module__diagsIncluded__C)
                  8503c278    00000004     edma3_drv_bios6_tda2xx_m4_c0_st_sample_pem4.oem4 (.const:ti_sysbios_gates_GateMutex_Module__diagsMask__C)
                  8503c27c    00000004     edma3_drv_bios6_tda2xx_m4_c0_st_sample_pem4.oem4 (.const:ti_sysbios_hal_ammu_AMMU_numLargePages__C)
                  8503c280    00000004     edma3_drv_bios6_tda2xx_m4_c0_st_sample_pem4.oem4 (.const:ti_sysbios_hal_ammu_AMMU_numLinePages__C)
                  8503c284    00000004     edma3_drv_bios6_tda2xx_m4_c0_st_sample_pem4.oem4 (.const:ti_sysbios_hal_ammu_AMMU_numMediumPages__C)
                  8503c288    00000004     edma3_drv_bios6_tda2xx_m4_c0_st_sample_pem4.oem4 (.const:ti_sysbios_hal_ammu_AMMU_numSmallPages__C)
                  8503c28c    00000004     edma3_drv_bios6_tda2xx_m4_c0_st_sample_pem4.oem4 (.const:ti_sysbios_hal_unicache_Cache_Module__gateObj__C)
                  8503c290    00000004     edma3_drv_bios6_tda2xx_m4_c0_st_sample_pem4.oem4 (.const:ti_sysbios_hal_unicache_Cache_l1ocpConfig__C)
                  8503c294    00000004     edma3_drv_bios6_tda2xx_m4_c0_st_sample_pem4.oem4 (.const:ti_sysbios_hal_unicache_Cache_l1secConfig__C)
                  8503c298    00000004     edma3_drv_bios6_tda2xx_m4_c0_st_sample_pem4.oem4 (.const:ti_sysbios_hal_unicache_Cache_l2ocpConfig__C)
                  8503c29c    00000004     edma3_drv_bios6_tda2xx_m4_c0_st_sample_pem4.oem4 (.const:ti_sysbios_hal_unicache_Cache_l2secConfig__C)
                  8503c2a0    00000004     edma3_drv_bios6_tda2xx_m4_c0_st_sample_pem4.oem4 (.const:ti_sysbios_hal_unicache_Cache_maxLineModeBufSize__C)
                  8503c2a4    00000004     edma3_drv_bios6_tda2xx_m4_c0_st_sample_pem4.oem4 (.const:ti_sysbios_heaps_HeapMem_A_align__C)
                  8503c2a8    00000004     edma3_drv_bios6_tda2xx_m4_c0_st_sample_pem4.oem4 (.const:ti_sysbios_heaps_HeapMem_A_heapSize__C)
                  8503c2ac    00000004     edma3_drv_bios6_tda2xx_m4_c0_st_sample_pem4.oem4 (.const:ti_sysbios_heaps_HeapMem_A_invalidFree__C)
                  8503c2b0    00000004     edma3_drv_bios6_tda2xx_m4_c0_st_sample_pem4.oem4 (.const:ti_sysbios_heaps_HeapMem_A_zeroBlock__C)
                  8503c2b4    00000004     edma3_drv_bios6_tda2xx_m4_c0_st_sample_pem4.oem4 (.const:ti_sysbios_heaps_HeapMem_E_memory__C)
                  8503c2b8    00000004     edma3_drv_bios6_tda2xx_m4_c0_st_sample_pem4.oem4 (.const:ti_sysbios_heaps_HeapMem_Module__diagsEnabled__C)
                  8503c2bc    00000004     edma3_drv_bios6_tda2xx_m4_c0_st_sample_pem4.oem4 (.const:ti_sysbios_heaps_HeapMem_Module__diagsIncluded__C)
                  8503c2c0    00000004     edma3_drv_bios6_tda2xx_m4_c0_st_sample_pem4.oem4 (.const:ti_sysbios_heaps_HeapMem_Module__diagsMask__C)
                  8503c2c4    00000004     edma3_drv_bios6_tda2xx_m4_c0_st_sample_pem4.oem4 (.const:ti_sysbios_heaps_HeapMem_Module__gateObj__C)
                  8503c2c8    00000004     edma3_drv_bios6_tda2xx_m4_c0_st_sample_pem4.oem4 (.const:ti_sysbios_heaps_HeapMem_Object__count__C)
                  8503c2cc    00000004     edma3_drv_bios6_tda2xx_m4_c0_st_sample_pem4.oem4 (.const:ti_sysbios_heaps_HeapMem_reqAlign__C)
                  8503c2d0    00000004     edma3_drv_bios6_tda2xx_m4_c0_st_sample_pem4.oem4 (.const:ti_sysbios_interfaces_ICache_Interface__BASE__C)
                  8503c2d4    00000004     edma3_drv_bios6_tda2xx_m4_c0_st_sample_pem4.oem4 (.const:ti_sysbios_interfaces_IIntrinsicsSupport_Interface__BASE__C)
                  8503c2d8    00000004     edma3_drv_bios6_tda2xx_m4_c0_st_sample_pem4.oem4 (.const:ti_sysbios_knl_Clock_A_badThreadType__C)
                  8503c2dc    00000004     edma3_drv_bios6_tda2xx_m4_c0_st_sample_pem4.oem4 (.const:ti_sysbios_knl_Clock_LM_begin__C)
                  8503c2e0    00000004     edma3_drv_bios6_tda2xx_m4_c0_st_sample_pem4.oem4 (.const:ti_sysbios_knl_Clock_LM_tick__C)
                  8503c2e4    00000004     edma3_drv_bios6_tda2xx_m4_c0_st_sample_pem4.oem4 (.const:ti_sysbios_knl_Clock_LW_delayed__C)
                  8503c2e8    00000004     edma3_drv_bios6_tda2xx_m4_c0_st_sample_pem4.oem4 (.const:ti_sysbios_knl_Clock_Module_State_clockQ__O)
                  8503c2ec    00000004     edma3_drv_bios6_tda2xx_m4_c0_st_sample_pem4.oem4 (.const:ti_sysbios_knl_Clock_Module__diagsEnabled__C)
                  8503c2f0    00000004     edma3_drv_bios6_tda2xx_m4_c0_st_sample_pem4.oem4 (.const:ti_sysbios_knl_Clock_Module__diagsIncluded__C)
                  8503c2f4    00000004     edma3_drv_bios6_tda2xx_m4_c0_st_sample_pem4.oem4 (.const:ti_sysbios_knl_Clock_Module__diagsMask__C)
                  8503c2f8    00000004     edma3_drv_bios6_tda2xx_m4_c0_st_sample_pem4.oem4 (.const:ti_sysbios_knl_Clock_Module__loggerFxn1__C)
                  8503c2fc    00000004     edma3_drv_bios6_tda2xx_m4_c0_st_sample_pem4.oem4 (.const:ti_sysbios_knl_Clock_Module__loggerFxn2__C)
                  8503c300    00000004     edma3_drv_bios6_tda2xx_m4_c0_st_sample_pem4.oem4 (.const:ti_sysbios_knl_Clock_Module__loggerObj__C)
                  8503c304    00000004     edma3_drv_bios6_tda2xx_m4_c0_st_sample_pem4.oem4 (.const:ti_sysbios_knl_Semaphore_A_badContext__C)
                  8503c308    00000004     edma3_drv_bios6_tda2xx_m4_c0_st_sample_pem4.oem4 (.const:ti_sysbios_knl_Semaphore_A_noEvents__C)
                  8503c30c    00000004     edma3_drv_bios6_tda2xx_m4_c0_st_sample_pem4.oem4 (.const:ti_sysbios_knl_Semaphore_A_overflow__C)
                  8503c310    00000004     edma3_drv_bios6_tda2xx_m4_c0_st_sample_pem4.oem4 (.const:ti_sysbios_knl_Semaphore_A_pendTaskDisabled__C)
                  8503c314    00000004     edma3_drv_bios6_tda2xx_m4_c0_st_sample_pem4.oem4 (.const:ti_sysbios_knl_Semaphore_Instance_State_pendQ__O)
                  8503c318    00000004     edma3_drv_bios6_tda2xx_m4_c0_st_sample_pem4.oem4 (.const:ti_sysbios_knl_Semaphore_LM_pend__C)
                  8503c31c    00000004     edma3_drv_bios6_tda2xx_m4_c0_st_sample_pem4.oem4 (.const:ti_sysbios_knl_Semaphore_LM_post__C)
                  8503c320    00000004     edma3_drv_bios6_tda2xx_m4_c0_st_sample_pem4.oem4 (.const:ti_sysbios_knl_Semaphore_Module__diagsEnabled__C)
                  8503c324    00000004     edma3_drv_bios6_tda2xx_m4_c0_st_sample_pem4.oem4 (.const:ti_sysbios_knl_Semaphore_Module__diagsIncluded__C)
                  8503c328    00000004     edma3_drv_bios6_tda2xx_m4_c0_st_sample_pem4.oem4 (.const:ti_sysbios_knl_Semaphore_Module__diagsMask__C)
                  8503c32c    00000004     edma3_drv_bios6_tda2xx_m4_c0_st_sample_pem4.oem4 (.const:ti_sysbios_knl_Semaphore_Module__loggerFxn2__C)
                  8503c330    00000004     edma3_drv_bios6_tda2xx_m4_c0_st_sample_pem4.oem4 (.const:ti_sysbios_knl_Semaphore_Module__loggerFxn4__C)
                  8503c334    00000004     edma3_drv_bios6_tda2xx_m4_c0_st_sample_pem4.oem4 (.const:ti_sysbios_knl_Semaphore_Module__loggerObj__C)
                  8503c338    00000004     edma3_drv_bios6_tda2xx_m4_c0_st_sample_pem4.oem4 (.const:ti_sysbios_knl_Swi_A_badPriority__C)
                  8503c33c    00000004     edma3_drv_bios6_tda2xx_m4_c0_st_sample_pem4.oem4 (.const:ti_sysbios_knl_Swi_LD_end__C)
                  8503c340    00000004     edma3_drv_bios6_tda2xx_m4_c0_st_sample_pem4.oem4 (.const:ti_sysbios_knl_Swi_LM_begin__C)
                  8503c344    00000004     edma3_drv_bios6_tda2xx_m4_c0_st_sample_pem4.oem4 (.const:ti_sysbios_knl_Swi_LM_post__C)
                  8503c348    00000004     edma3_drv_bios6_tda2xx_m4_c0_st_sample_pem4.oem4 (.const:ti_sysbios_knl_Swi_Module__diagsEnabled__C)
                  8503c34c    00000004     edma3_drv_bios6_tda2xx_m4_c0_st_sample_pem4.oem4 (.const:ti_sysbios_knl_Swi_Module__diagsIncluded__C)
                  8503c350    00000004     edma3_drv_bios6_tda2xx_m4_c0_st_sample_pem4.oem4 (.const:ti_sysbios_knl_Swi_Module__diagsMask__C)
                  8503c354    00000004     edma3_drv_bios6_tda2xx_m4_c0_st_sample_pem4.oem4 (.const:ti_sysbios_knl_Swi_Module__loggerFxn1__C)
                  8503c358    00000004     edma3_drv_bios6_tda2xx_m4_c0_st_sample_pem4.oem4 (.const:ti_sysbios_knl_Swi_Module__loggerFxn4__C)
                  8503c35c    00000004     edma3_drv_bios6_tda2xx_m4_c0_st_sample_pem4.oem4 (.const:ti_sysbios_knl_Swi_Module__loggerObj__C)
                  8503c360    00000004     edma3_drv_bios6_tda2xx_m4_c0_st_sample_pem4.oem4 (.const:ti_sysbios_knl_Swi_Object__count__C)
                  8503c364    00000004     edma3_drv_bios6_tda2xx_m4_c0_st_sample_pem4.oem4 (.const:ti_sysbios_knl_Task_A_badPriority__C)
                  8503c368    00000004     edma3_drv_bios6_tda2xx_m4_c0_st_sample_pem4.oem4 (.const:ti_sysbios_knl_Task_A_badTaskState__C)
                  8503c36c    00000004     edma3_drv_bios6_tda2xx_m4_c0_st_sample_pem4.oem4 (.const:ti_sysbios_knl_Task_A_badThreadType__C)
                  8503c370    00000004     edma3_drv_bios6_tda2xx_m4_c0_st_sample_pem4.oem4 (.const:ti_sysbios_knl_Task_A_noPendElem__C)
                  8503c374    00000004     edma3_drv_bios6_tda2xx_m4_c0_st_sample_pem4.oem4 (.const:ti_sysbios_knl_Task_LD_block__C)
                  8503c378    00000004     edma3_drv_bios6_tda2xx_m4_c0_st_sample_pem4.oem4 (.const:ti_sysbios_knl_Task_LD_exit__C)
                  8503c37c    00000004     edma3_drv_bios6_tda2xx_m4_c0_st_sample_pem4.oem4 (.const:ti_sysbios_knl_Task_LD_ready__C)
                  8503c380    00000004     edma3_drv_bios6_tda2xx_m4_c0_st_sample_pem4.oem4 (.const:ti_sysbios_knl_Task_LM_switch__C)
                  8503c384    00000004     edma3_drv_bios6_tda2xx_m4_c0_st_sample_pem4.oem4 (.const:ti_sysbios_knl_Task_Module_State_inactiveQ__O)
                  8503c388    00000004     edma3_drv_bios6_tda2xx_m4_c0_st_sample_pem4.oem4 (.const:ti_sysbios_knl_Task_Module__diagsEnabled__C)
                  8503c38c    00000004     edma3_drv_bios6_tda2xx_m4_c0_st_sample_pem4.oem4 (.const:ti_sysbios_knl_Task_Module__diagsIncluded__C)
                  8503c390    00000004     edma3_drv_bios6_tda2xx_m4_c0_st_sample_pem4.oem4 (.const:ti_sysbios_knl_Task_Module__diagsMask__C)
                  8503c394    00000004     edma3_drv_bios6_tda2xx_m4_c0_st_sample_pem4.oem4 (.const:ti_sysbios_knl_Task_Module__loggerFxn2__C)
                  8503c398    00000004     edma3_drv_bios6_tda2xx_m4_c0_st_sample_pem4.oem4 (.const:ti_sysbios_knl_Task_Module__loggerFxn4__C)
                  8503c39c    00000004     edma3_drv_bios6_tda2xx_m4_c0_st_sample_pem4.oem4 (.const:ti_sysbios_knl_Task_Module__loggerObj__C)
                  8503c3a0    00000004     edma3_drv_bios6_tda2xx_m4_c0_st_sample_pem4.oem4 (.const:ti_sysbios_knl_Task_Object__count__C)
                  8503c3a4    00000004     edma3_drv_bios6_tda2xx_m4_c0_st_sample_pem4.oem4 (.const:ti_sysbios_knl_Task_allBlockedFunc__C)
                  8503c3a8    00000004     edma3_drv_bios6_tda2xx_m4_c0_st_sample_pem4.oem4 (.const:ti_sysbios_knl_Task_defaultStackHeap__C)
                  8503c3ac    00000004     edma3_drv_bios6_tda2xx_m4_c0_st_sample_pem4.oem4 (.const:ti_sysbios_knl_Task_defaultStackSize__C)
                  8503c3b0    00000004     edma3_drv_bios6_tda2xx_m4_c0_st_sample_pem4.oem4 (.const:ti_sysbios_knl_Task_numConstructedTasks__C)
                  8503c3b4    00000004     edma3_drv_bios6_tda2xx_m4_c0_st_sample_pem4.oem4 (.const:xdc_runtime_Assert_E_assertFailed__C)
                  8503c3b8    00000004     edma3_drv_bios6_tda2xx_m4_c0_st_sample_pem4.oem4 (.const:xdc_runtime_Core_A_initializedParams__C)
                  8503c3bc    00000004     edma3_drv_bios6_tda2xx_m4_c0_st_sample_pem4.oem4 (.const:xdc_runtime_Core_Module__diagsEnabled__C)
                  8503c3c0    00000004     edma3_drv_bios6_tda2xx_m4_c0_st_sample_pem4.oem4 (.const:xdc_runtime_Core_Module__diagsIncluded__C)
                  8503c3c4    00000004     edma3_drv_bios6_tda2xx_m4_c0_st_sample_pem4.oem4 (.const:xdc_runtime_Core_Module__diagsMask__C)
                  8503c3c8    00000004     edma3_drv_bios6_tda2xx_m4_c0_st_sample_pem4.oem4 (.const:xdc_runtime_Error_E_memory__C)
                  8503c3cc    00000004     edma3_drv_bios6_tda2xx_m4_c0_st_sample_pem4.oem4 (.const:xdc_runtime_Error_Module__diagsEnabled__C)
                  8503c3d0    00000004     edma3_drv_bios6_tda2xx_m4_c0_st_sample_pem4.oem4 (.const:xdc_runtime_Error_Module__diagsIncluded__C)
                  8503c3d4    00000004     edma3_drv_bios6_tda2xx_m4_c0_st_sample_pem4.oem4 (.const:xdc_runtime_Error_Module__diagsMask__C)
                  8503c3d8    00000004     edma3_drv_bios6_tda2xx_m4_c0_st_sample_pem4.oem4 (.const:xdc_runtime_Error_Module__loggerFxn8__C)
                  8503c3dc    00000004     edma3_drv_bios6_tda2xx_m4_c0_st_sample_pem4.oem4 (.const:xdc_runtime_Error_Module__loggerObj__C)
                  8503c3e0    00000004     edma3_drv_bios6_tda2xx_m4_c0_st_sample_pem4.oem4 (.const:xdc_runtime_Error_policyFxn__C)
                  8503c3e4    00000004     edma3_drv_bios6_tda2xx_m4_c0_st_sample_pem4.oem4 (.const:xdc_runtime_Error_raiseHook__C)
                  8503c3e8    00000004     edma3_drv_bios6_tda2xx_m4_c0_st_sample_pem4.oem4 (.const:xdc_runtime_IGateProvider_Interface__BASE__C)
                  8503c3ec    00000004     edma3_drv_bios6_tda2xx_m4_c0_st_sample_pem4.oem4 (.const:xdc_runtime_IHeap_Interface__BASE__C)
                  8503c3f0    00000004     edma3_drv_bios6_tda2xx_m4_c0_st_sample_pem4.oem4 (.const:xdc_runtime_IModule_Interface__BASE__C)
                  8503c3f4    00000004     edma3_drv_bios6_tda2xx_m4_c0_st_sample_pem4.oem4 (.const:xdc_runtime_ISystemSupport_Interface__BASE__C)
                  8503c3f8    00000004     edma3_drv_bios6_tda2xx_m4_c0_st_sample_pem4.oem4 (.const:xdc_runtime_Log_L_error__C)
                  8503c3fc    00000004     edma3_drv_bios6_tda2xx_m4_c0_st_sample_pem4.oem4 (.const:xdc_runtime_Memory_defaultHeapInstance__C)
                  8503c400    00000004     edma3_drv_bios6_tda2xx_m4_c0_st_sample_pem4.oem4 (.const:xdc_runtime_Startup_execImpl__C)
                  8503c404    00000004     edma3_drv_bios6_tda2xx_m4_c0_st_sample_pem4.oem4 (.const:xdc_runtime_Startup_lastFxns__A)
                  8503c408    00000004     edma3_drv_bios6_tda2xx_m4_c0_st_sample_pem4.oem4 (.const:xdc_runtime_Startup_maxPasses__C)
                  8503c40c    00000004     edma3_drv_bios6_tda2xx_m4_c0_st_sample_pem4.oem4 (.const:xdc_runtime_Startup_sfxnRts__C)
                  8503c410    00000004     edma3_drv_bios6_tda2xx_m4_c0_st_sample_pem4.oem4 (.const:xdc_runtime_Startup_sfxnTab__C)
                  8503c414    00000004     edma3_drv_bios6_tda2xx_m4_c0_st_sample_pem4.oem4 (.const:xdc_runtime_SysMin_bufSize__C)
                  8503c418    00000004     edma3_drv_bios6_tda2xx_m4_c0_st_sample_pem4.oem4 (.const:xdc_runtime_SysMin_outputFunc__C)
                  8503c41c    00000004     edma3_drv_bios6_tda2xx_m4_c0_st_sample_pem4.oem4 (.const:xdc_runtime_System_Module__gateObj__C)
                  8503c420    00000004     edma3_drv_bios6_tda2xx_m4_c0_st_sample_pem4.oem4 (.const:xdc_runtime_System_abortFxn__C)
                  8503c424    00000004     edma3_drv_bios6_tda2xx_m4_c0_st_sample_pem4.oem4 (.const:xdc_runtime_System_exitFxn__C)
                  8503c428    00000004     edma3_drv_bios6_tda2xx_m4_c0_st_sample_pem4.oem4 (.const:xdc_runtime_System_extendFxn__C)
                  8503c42c    00000004     edma3_drv_bios6_tda2xx_m4_c0_st_sample_pem4.oem4 (.const:xdc_runtime_System_maxAtexitHandlers__C)
                  8503c430    00000004     edma3_drv_bios6_tda2xx_m4_c0_st_sample_pem4.oem4 (.const:xdc_runtime_Text_charTab__C)
                  8503c434    00000004     edma3_drv_bios6_tda2xx_m4_c0_st_sample_pem4.oem4 (.const:xdc_runtime_Text_nameEmpty__C)
                  8503c438    00000004     edma3_drv_bios6_tda2xx_m4_c0_st_sample_pem4.oem4 (.const:xdc_runtime_Text_nameStatic__C)
                  8503c43c    00000004     edma3_drv_bios6_tda2xx_m4_c0_st_sample_pem4.oem4 (.const:xdc_runtime_Text_nameUnknown__C)
                  8503c440    00000004     edma3_drv_bios6_tda2xx_m4_c0_st_sample_pem4.oem4 (.const:xdc_runtime_Text_nodeTab__C)
                  8503c444    00000004     edma3_drv_bios6_tda2xx_m4_c0_st_sample_pem4.oem4 (.const:xdc_runtime_Text_visitRopeFxn__C)
                  8503c448    00000002     edma3_drv_bios6_tda2xx_m4_c0_st_sample_pem4.oem4 (.const:ti_sysbios_family_arm_ducati_Timer_Module__id__C)
                  8503c44a    00000002     edma3_drv_bios6_tda2xx_m4_c0_st_sample_pem4.oem4 (.const:ti_sysbios_family_arm_m3_Hwi_Module__id__C)
                  8503c44c    00000002     edma3_drv_bios6_tda2xx_m4_c0_st_sample_pem4.oem4 (.const:ti_sysbios_family_arm_m3_Hwi_Module__loggerDefined__C)
                  8503c44e    00000002     edma3_drv_bios6_tda2xx_m4_c0_st_sample_pem4.oem4 (.const:ti_sysbios_family_shared_vayu_IntXbar_Module__id__C)
                  8503c450    00000002     edma3_drv_bios6_tda2xx_m4_c0_st_sample_pem4.oem4 (.const:ti_sysbios_gates_GateMutex_Module__id__C)
                  8503c452    00000002     edma3_drv_bios6_tda2xx_m4_c0_st_sample_pem4.oem4 (.const:ti_sysbios_hal_ammu_AMMU_configureAmmu__C)
                  8503c454    00000002     edma3_drv_bios6_tda2xx_m4_c0_st_sample_pem4.oem4 (.const:ti_sysbios_hal_unicache_Cache_configureCache__C)
                  8503c456    00000002     edma3_drv_bios6_tda2xx_m4_c0_st_sample_pem4.oem4 (.const:ti_sysbios_hal_unicache_Cache_enableCache__C)
                  8503c458    00000002     edma3_drv_bios6_tda2xx_m4_c0_st_sample_pem4.oem4 (.const:ti_sysbios_hal_unicache_Cache_l2CacheSupported__C)
                  8503c45a    00000002     edma3_drv_bios6_tda2xx_m4_c0_st_sample_pem4.oem4 (.const:ti_sysbios_heaps_HeapMem_Module__id__C)
                  8503c45c    00000002     edma3_drv_bios6_tda2xx_m4_c0_st_sample_pem4.oem4 (.const:ti_sysbios_knl_Clock_Module__id__C)
                  8503c45e    00000002     edma3_drv_bios6_tda2xx_m4_c0_st_sample_pem4.oem4 (.const:ti_sysbios_knl_Clock_Module__loggerDefined__C)
                  8503c460    00000002     edma3_drv_bios6_tda2xx_m4_c0_st_sample_pem4.oem4 (.const:ti_sysbios_knl_Semaphore_Module__id__C)
                  8503c462    00000002     edma3_drv_bios6_tda2xx_m4_c0_st_sample_pem4.oem4 (.const:ti_sysbios_knl_Semaphore_Module__loggerDefined__C)
                  8503c464    00000002     edma3_drv_bios6_tda2xx_m4_c0_st_sample_pem4.oem4 (.const:ti_sysbios_knl_Swi_Module__id__C)
                  8503c466    00000002     edma3_drv_bios6_tda2xx_m4_c0_st_sample_pem4.oem4 (.const:ti_sysbios_knl_Swi_Module__loggerDefined__C)
                  8503c468    00000002     edma3_drv_bios6_tda2xx_m4_c0_st_sample_pem4.oem4 (.const:ti_sysbios_knl_Task_Module__id__C)
                  8503c46a    00000002     edma3_drv_bios6_tda2xx_m4_c0_st_sample_pem4.oem4 (.const:ti_sysbios_knl_Task_Module__loggerDefined__C)
                  8503c46c    00000002     edma3_drv_bios6_tda2xx_m4_c0_st_sample_pem4.oem4 (.const:xdc_runtime_Core_Module__id__C)
                  8503c46e    00000002     edma3_drv_bios6_tda2xx_m4_c0_st_sample_pem4.oem4 (.const:xdc_runtime_Error_Module__loggerDefined__C)
                  8503c470    00000002     edma3_drv_bios6_tda2xx_m4_c0_st_sample_pem4.oem4 (.const:xdc_runtime_Error_maxDepth__C)
                  8503c472    00000002     edma3_drv_bios6_tda2xx_m4_c0_st_sample_pem4.oem4 (.const:xdc_runtime_Memory_Module__id__C)
                  8503c474    00000002     edma3_drv_bios6_tda2xx_m4_c0_st_sample_pem4.oem4 (.const:xdc_runtime_SysMin_flushAtExit__C)
                  8503c476    00000002     edma3_drv_bios6_tda2xx_m4_c0_st_sample_pem4.oem4 (.const:xdc_runtime_Text_charCnt__C)
                  8503c478    00000002     edma3_drv_bios6_tda2xx_m4_c0_st_sample_pem4.oem4 (.const:xdc_runtime_Text_isLoaded__C)
                  8503c47a    00000002     edma3_drv_bios6_tda2xx_m4_c0_st_sample_pem4.oem4 (.const:xdc_runtime_Text_registryModsLastId__C)
                  8503c47c    00000002     edma3_drv_bios6_tda2xx_m4_c0_st_sample_pem4.oem4 (.const:xdc_runtime_Text_unnamedModsLastId__C)

MODULE SUMMARY

       Module                                             code    ro data   rw data
       ------                                             ----    -------   -------
    /oe/bld/build-CORTEX_1/arago-tmp-external-linaro-toolchain/work/am57xx_evm-linux-gnueabi/edma3-lld-rtos/2.12.05.30C-r0.1/git/examples/edma3_driver/evmtda2xx_M4/obj/tda2xx-evm/m4/release/edma3_drv_arm_tda2xx_core0_sample_configuro/package/cfg/
       edma3_drv_bios6_tda2xx_m4_c0_st_sample_pem4.oem4   5708    10911     90598  
    +--+--------------------------------------------------+-------+---------+---------+
       Total:                                             5708    10911     90598  
                                                                                   
    obj/tda2xx-evm/m4/release/
       dma_ping_pong_test.oem4                            1064    32        8152   
       main.oem4                                          3090    0         8      
       qdma_link_test.oem4                                1880    0         16     
       dma_poll_test.oem4                                 1210    0         0      
       dma_link_test.oem4                                 1024    32        0      
       dma_chain_test.oem4                                956     0         0      
       qdma_test.oem4                                     948     0         8      
       dma_test.oem4                                      888     32        0      
       common.oem4                                        96      0         476    
       dma_misc_test.oem4                                 208     0         0      
    +--+--------------------------------------------------+-------+---------+---------+
       Total:                                             11364   96        8660   
                                                                                   
    /oe/bld/build-CORTEX_1/arago-tmp-external-linaro-toolchain/sysroots/am57xx-evm/usr/share/ti/ti-sysbios-tree/packages/ti/targets/arm/rtsarm/lib/auto_init.aem4
       auto_init.oem4                                     160     0         0      
    +--+--------------------------------------------------+-------+---------+---------+
       Total:                                             160     0         0      
                                                                                   
    /oe/bld/build-CORTEX_1/arago-tmp-external-linaro-toolchain/sysroots/am57xx-evm/usr/share/ti/ti-sysbios-tree/packages/ti/targets/arm/rtsarm/lib/boot.aem4
       boot.oem4                                          68      0         0      
    +--+--------------------------------------------------+-------+---------+---------+
       Total:                                             68      0         0      
                                                                                   
    /oe/bld/build-CORTEX_1/arago-tmp-external-linaro-toolchain/sysroots/am57xx-evm/usr/share/ti/ti-sysbios-tree/packages/ti/targets/arm/rtsarm/lib/ti.targets.arm.rtsarm.aem4
       System.oem4                                        1327    0         0      
       Text.oem4                                          664     0         0      
       Error.oem4                                         572     0         0      
       Startup.oem4                                       340     0         0      
       Core-mem.oem4                                      334     0         0      
       SysMin.oem4                                        248     0         0      
       Core-smem.oem4                                     204     0         0      
       Memory.oem4                                        176     0         0      
       Assert.oem4                                        84      0         0      
       Core-params.oem4                                   70      0         0      
       Core-label.oem4                                    52      0         0      
       Registry.oem4                                      32      0         0      
       Gate.oem4                                          28      0         0      
    +--+--------------------------------------------------+-------+---------+---------+
       Total:                                             4131    0         0      
                                                                                   
    /oe/bld/build-CORTEX_1/arago-tmp-external-linaro-toolchain/sysroots/x86_64-linux/usr/share/ti/ti-cgt-arm/lib/rtsv7M4_T_le_eabi.lib
       _printfi.obj                                       4386    0         0      
       lowlev.obj                                         780     0         208    
       trgdrv.obj                                         804     0         8      
       ull_div_t2.obj                                     500     0         0      
       fopen.obj                                          452     0         4      
       fd_add_t2.obj                                      438     0         0      
       defs.obj                                           0       0         416    
       trgmsg.obj                                         104     0         288    
       fd_div_t2.obj                                      310     0         0      
       fputs.obj                                          308     0         0      
       fd_cmp_t2.obj                                      268     0         0      
       ctype.obj                                          0       257       0      
       fd_mul_t2.obj                                      252     0         0      
       setvbuf.obj                                        220     0         0      
       s_scalbn.obj                                       208     0         0      
       fflush.obj                                         200     0         0      
       _io_perm.obj                                       172     0         0      
       memcpy_t2.obj                                      156     0         0      
       fclose.obj                                         152     0         0      
       fputc.obj                                          152     0         0      
       memset_t2.obj                                      122     0         0      
       printf.obj                                         112     0         0      
       fseek.obj                                          100     0         0      
       exit.obj                                           84      0         12     
       s_frexp.obj                                        92      0         0      
       ltoa.obj                                           84      0         0      
       atoi.obj                                           76      0         0      
       cpy_tbl.obj                                        76      0         0      
       fd_toi_t2.obj                                      72      0         0      
       u_divt2.obj                                        64      0         0      
       strncpy.obj                                        54      0         0      
       i_tofd_t2.obj                                      46      0         0      
       assert.obj                                         44      0         0      
       memchr.obj                                         32      0         0      
       _lock.obj                                          20      0         8      
       memccpy.obj                                        28      0         0      
       args_main.obj                                      24      0         0      
       strcmp.obj                                         24      0         0      
       strchr.obj                                         22      0         0      
       strcpy.obj                                         20      0         0      
       strlen.obj                                         20      0         0      
       s_copysign.obj                                     8       0         0      
       errno.obj                                          0       0         4      
       remove.obj                                         4       0         0      
       stkdepth_vars.obj                                  0       0         4      
       i_div0.obj                                         2       0         0      
    +--+--------------------------------------------------+-------+---------+---------+
       Total:                                             11092   257       952    
                                                                                   
    /oe/bld/build-CORTEX_1/arago-tmp-external-linaro-toolchain/work/am57xx_evm-linux-gnueabi/edma3-lld-rtos/2.12.05.30C-r0.1/git/examples/edma3_driver/evmtda2xx_M4/obj/tda2xx-evm/m4/release/edma3_drv_arm_tda2xx_core0_sample_configuro/package/cfg/edma3_drv_bios6_tda2xx_m4_c0_st_sample_pem4.src/sysbios/sysbios.aem4
       BIOS.obj                                           17726   0         0      
       m3_Hwi_asm.obj                                     262     0         0      
       m3_TaskSupport_asm.obj                             108     0         0      
       m3_Hwi_asm_switch.obj                              102     0         0      
       ducati_Core_asm.obj                                80      0         0      
       m3_IntrinsicsSupport_asm.obj                       10      0         0      
    +--+--------------------------------------------------+-------+---------+---------+
       Total:                                             18288   0         0      
                                                                                   
    /oe/bld/build-CORTEX_1/arago-tmp-external-linaro-toolchain/work/am57xx_evm-linux-gnueabi/edma3-lld-rtos/2.12.05.30C-r0.1/git/packages/ti/sdo/edma3/drv/lib/m4/release/edma3_lld_drv.aem4
       edma3_drv_init.oem4                                1252    0         57142  
       edma3_drv_basic.oem4                               4744    53        0      
       edma3_drv_adv.oem4                                 3392    0         0      
    +--+--------------------------------------------------+-------+---------+---------+
       Total:                                             9388    53        57142  
                                                                                   
    /oe/bld/build-CORTEX_1/arago-tmp-external-linaro-toolchain/work/am57xx_evm-linux-gnueabi/edma3-lld-rtos/2.12.05.30C-r0.1/git/packages/ti/sdo/edma3/drv/sample/lib/tda2xx-evm/m4/release/edma3_lld_drv_sample.aem4
       sample_tda2xx_cfg.oem4                             84      8         12904  
       sample_tda2xx_arm_int_reg.oem4                     712     0         84     
       sample_arm_cs.oem4                                 356     0         0      
       sample_arm_init.oem4                               256     0         8      
    +--+--------------------------------------------------+-------+---------+---------+
       Total:                                             1408    8         12996  
                                                                                   
    /oe/bld/build-CORTEX_1/arago-tmp-external-linaro-toolchain/work/am57xx_evm-linux-gnueabi/edma3-lld-rtos/2.12.05.30C-r0.1/git/packages/ti/sdo/edma3/rm/lib/tda2xx-evm/m4/release/edma3_lld_rm.aem4
       edma3resmgr.oem4                                   12076   0         31334  
       edma3_rm_gbl_data.oem4                             0       4         22256  
       edma3_tda2xx_cfg.oem4                              0       0         6216   
    +--+--------------------------------------------------+-------+---------+---------+
       Total:                                             12076   4         59806  
                                                                                   
       Stack:                                             0       0         16384  
    +--+--------------------------------------------------+-------+---------+---------+
       Grand Total:                                       73683   11329     246538 


GLOBAL SYMBOLS: SORTED ALPHABETICALLY BY Name 

address   name                                                                 
-------   ----                                                                 
85035860  AppSemHandle1                                                        
85035864  AppSemHandle2                                                        
84010bbd  C$$EXIT                                                              
84010767  C$$IO$$                                                              
840075c5  EDMA3_DRV_Ioctl                                                      
840074e3  EDMA3_DRV_chainChannel                                               
8400748b  EDMA3_DRV_checkAndClearTcc                                           
84005735  EDMA3_DRV_clearErrorBits                                             
84008df1  EDMA3_DRV_close                                                      
84008ce1  EDMA3_DRV_create                                                     
84008bf9  EDMA3_DRV_delete                                                     
8400568b  EDMA3_DRV_disableLogicalChannel                                      
84004a37  EDMA3_DRV_disableTransfer                                            
8400557f  EDMA3_DRV_enableTransfer                                             
84004cd7  EDMA3_DRV_freeChannel                                                
84005553  EDMA3_DRV_getAllocatedPARAMId                                        
8400745b  EDMA3_DRV_getCCRegister                                              
8400735b  EDMA3_DRV_getChannelStatus                                           
84007311  EDMA3_DRV_getInstHandle                                              
840072a9  EDMA3_DRV_getMapChToEvtQ                                             
8400549d  EDMA3_DRV_getOptField                                                
84007245  EDMA3_DRV_getPaRAM                                                   
840071e1  EDMA3_DRV_getPaRAMEntry                                              
840070f5  EDMA3_DRV_getPaRAMField                                              
84007089  EDMA3_DRV_getPaRAMPhyAddr                                            
84005495  EDMA3_DRV_getVersion                                                 
84005491  EDMA3_DRV_getVersionStr                                              
84008bab  EDMA3_DRV_initXbarEventMap                                           
84006fd1  EDMA3_DRV_linkChannel                                                
84006ef9  EDMA3_DRV_mapChToEvtQ                                                
84006e71  EDMA3_DRV_mapTccLinkCh                                               
84008aaf  EDMA3_DRV_open                                                       
84006df9  EDMA3_DRV_registerTccCb                                              
84004edd  EDMA3_DRV_requestChannel                                             
84006d9f  EDMA3_DRV_setCCRegister                                              
840049a9  EDMA3_DRV_setDestIndex                                               
8400488d  EDMA3_DRV_setDestParams                                              
84006d21  EDMA3_DRV_setEvtQPriority                                            
84004777  EDMA3_DRV_setOptField                                                
84006cc5  EDMA3_DRV_setPaRAM                                                   
84006c6d  EDMA3_DRV_setPaRAMEntry                                              
84006b21  EDMA3_DRV_setPaRAMField                                              
84006ac1  EDMA3_DRV_setQdmaTrigWord                                            
840046e9  EDMA3_DRV_setSrcIndex                                                
840045e3  EDMA3_DRV_setSrcParams                                               
84006a31  EDMA3_DRV_setTcErrorInt                                              
8400453d  EDMA3_DRV_setTransferParams                                          
840069df  EDMA3_DRV_unchainChannel                                             
84006985  EDMA3_DRV_unlinkChannel                                              
84006935  EDMA3_DRV_unregisterTccCb                                            
840068e9  EDMA3_DRV_waitAndClearTcc                                            
8503c1a0  EDMA3_MAX_RM_INSTANCES                                               
84002ebb  EDMA3_RM_Ioctl                                                       
84002b8d  EDMA3_RM_allocContiguousResource                                     
8400216d  EDMA3_RM_allocLogicalChannel                                         
84001c7d  EDMA3_RM_allocResource                                               
84001bdd  EDMA3_RM_checkAndClearTcc                                            
84001ad5  EDMA3_RM_close                                                       
84001947  EDMA3_RM_create                                                      
8400184b  EDMA3_RM_delete                                                      
840017e9  EDMA3_RM_freeContiguousResource                                      
84001599  EDMA3_RM_freeLogicalChannel                                          
84001399  EDMA3_RM_freeResource                                                
84001353  EDMA3_RM_getBaseAddress                                              
84001325  EDMA3_RM_getCCRegister                                               
840012fd  EDMA3_RM_getGblConfigParams                                          
84001293  EDMA3_RM_getInstanceInitCfg                                          
840011f9  EDMA3_RM_getPaRAM                                                    
84001165  EDMA3_RM_getPaRAMPhyAddr                                             
84001131  EDMA3_RM_initXbarEventMap                                            
84001081  EDMA3_RM_mapEdmaChannel                                              
84000faf  EDMA3_RM_mapQdmaChannel                                              
84000cf1  EDMA3_RM_open                                                        
84000b71  EDMA3_RM_registerTccCb                                               
84000b13  EDMA3_RM_setCCRegister                                               
840008dd  EDMA3_RM_setPaRAM                                                    
8400084b  EDMA3_RM_unregisterTccCb                                             
84000801  EDMA3_RM_waitAndClearTcc                                             
8400b967  Edma3MemProtectionHandler                                            
8400d16d  Edma3_CacheFlush                                                     
8400d151  Edma3_CacheInvalidate                                                
8400b0a7  HOSTclock                                                            
8400b06f  HOSTclose                                                            
8400b031  HOSTgetenv                                                           
8400afd5  HOSTlseek                                                            
8400af83  HOSTopen                                                             
8400af37  HOSTread                                                             
8400aed9  HOSTrename                                                           
8400ae9f  HOSTtime                                                             
8400ae51  HOSTtime64                                                           
8400ae19  HOSTunlink                                                           
8400adcd  HOSTwrite                                                            
UNDEFED   SHT$$INIT_ARRAY$$Base                                                
UNDEFED   SHT$$INIT_ARRAY$$Limit                                               
85000000  __ASM__                                                              
85030408  __CIOBUF_                                                            
8500012c  __ISA__                                                              
8500013f  __PLAT__                                                             
8503997c  __STACK_END                                                          
00004000  __STACK_SIZE                                                         
85000165  __TARG__                                                             
UNDEFED   __TI_CINIT_Base                                                      
UNDEFED   __TI_CINIT_Limit                                                     
UNDEFED   __TI_Handler_Table_Base                                              
UNDEFED   __TI_Handler_Table_Limit                                             
8400f87d  __TI_auto_init                                                       
8400c6e1  __TI_cleanup                                                         
8503582c  __TI_cleanup_ptr                                                     
8400fb99  __TI_closefile                                                       
8400eda1  __TI_doflush                                                         
85035830  __TI_dtors_ptr                                                       
85035834  __TI_enable_exit_profile_output                                      
8503581c  __TI_ft_end                                                          
ffffffff  __TI_pprof_out_hndl                                                  
84005ffd  __TI_printfi                                                         
ffffffff  __TI_prof_data_size                                                  
ffffffff  __TI_prof_data_start                                                 
8400f633  __TI_rd_ok                                                           
8401076b  __TI_readmsg                                                         
ffffffff  __TI_static_base__                                                   
850305c8  __TI_tmpnams                                                         
84010739  __TI_writemsg                                                        
8400f5d1  __TI_wrt_ok                                                          
8500018a  __TRDR__                                                             
84010021  __aeabi_cdcmpeq                                                      
84010021  __aeabi_cdcmple                                                      
840100a7  __aeabi_cdrcmple                                                     
84010fcd  __aeabi_d2iz                                                         
8400cb73  __aeabi_dadd                                                         
8400dbe1  __aeabi_ddiv                                                         
8400e50d  __aeabi_dmul                                                         
8400cb69  __aeabi_dsub                                                         
84011899  __aeabi_i2d                                                          
840068e7  __aeabi_idiv0                                                        
84010335  __aeabi_memclr                                                       
84010335  __aeabi_memclr4                                                      
84010335  __aeabi_memclr8                                                      
8400f9c1  __aeabi_memcpy                                                       
8400f9c1  __aeabi_memcpy4                                                      
8400f9c1  __aeabi_memcpy8                                                      
84010337  __aeabi_memset                                                       
84010337  __aeabi_memset4                                                      
84010337  __aeabi_memset8                                                      
85035828  __aeabi_stderr                                                       
85035820  __aeabi_stdin                                                        
85035824  __aeabi_stdout                                                       
84011369  __aeabi_uidiv                                                        
84011369  __aeabi_uidivmod                                                     
8400c24d  __aeabi_uldivmod                                                     
ffffffff  __binit__                                                            
ffffffff  __c_args__                                                           
8503597c  __stack                                                              
840118cb  _abort_msg                                                           
84011ccd  _args_main                                                           
00000000  _argsize                                                             
840118e1  _assert                                                              
840111c9  _c_int00                                                             
8503ba24  _ctypes_                                                             
8503e500  _dstBuff1                                                            
8503e600  _dstBuff2                                                            
8503df80  _dstL1DBuff1                                                         
8503e200  _dstL1DBuff2                                                         
85034fb8  _ftable                                                              
850358b0  _lock                                                                
840118c9  _nassert                                                             
84011db3  _nop                                                                 
8503d200  _pingpongDestBuf                                                     
8503c480  _pingpongSrcBuf                                                      
84011dab  _register_lock                                                       
84011da5  _register_unlock                                                     
8503e480  _srcBuff1                                                            
8503e580  _srcBuff2                                                            
850358b4  _unlock                                                              
84010bc1  abort                                                                
8400b665  add_device                                                           
84010db1  atoi                                                                 
ffffffff  binit                                                                
84007c3b  bypassCore                                                           
840108fd  callback1                                                            
840108d5  callback2                                                            
840044ed  calloc                                                               
850352ec  ccCompEdmaXbarIndex                                                  
85035838  ccErrEdmaXbarIndex                                                   
85035844  ccErrorInt                                                           
85035850  ccErrorIntXbarInstNo                                                 
8503534c  ccXferCompInt                                                        
850353ac  ccXferCompIntXbarInstNo                                              
8400b615  close                                                                
84010dfd  copy_in                                                              
84011fab  copysign                                                             
84011fab  copysignl                                                            
85031f28  defInstInitConfig                                                    
84010b6f  determineProcId                                                      
85023420  drvInstance                                                          
8502d2e0  drvObj                                                               
85030748  dsp_num                                                              
8503074c  dsp_num_tmp                                                          
85030750  dstBuff1                                                             
85030754  dstBuff2                                                             
85030758  dstL1DBuff1                                                          
8503075c  dstL1DBuff2                                                          
84007d5d  echo                                                                 
85015000  edma3DrvChBoundRes                                                   
85033ea8  edma3GblCfgParams                                                    
8503bcb4  edma3LldVersionStr                                                   
840007bd  edma3MemCpy                                                          
8400763d  edma3MemToMemCpytest                                                 
8400079b  edma3MemZero                                                         
850358a8  edma3NumPaRAMSets                                                    
8400d0ef  edma3OsProtectEntry                                                  
8400d097  edma3OsProtectExit                                                   
8400d077  edma3OsSemCreate                                                     
8400d061  edma3OsSemDelete                                                     
8400d04f  edma3OsSemGive                                                       
8400d035  edma3OsSemTake                                                       
84000775  edma3ParamCpy                                                        
850306c8  edma3_dma_ch_max_val                                                 
850306dc  edma3_link_ch_max_val                                                
850306f0  edma3_link_ch_min_val                                                
85030704  edma3_log_ch_max_val                                                 
8400e8c5  edma3_misc_test                                                      
85030718  edma3_qdma_ch_max_val                                                
8503072c  edma3_qdma_ch_min_val                                                
8400a701  edma3_test                                                           
840097ad  edma3_test_ping_pong_mode                                            
8400916b  edma3_test_poll_mode                                                 
84008e79  edma3_test_user_req_paRAMId                                          
84009f91  edma3_test_with_chaining                                             
84009b91  edma3_test_with_link                                                 
8400e4c5  edma3deinit                                                          
8400e40d  edma3init                                                            
85035950  errno                                                                
84010bc9  exit                                                                 
8400fbff  fclose                                                               
8400eded  fflush                                                               
8400c737  fopen                                                                
8400fc31  fputc                                                                
8400dd19  fputs                                                                
84004441  free                                                                 
8400c70d  freopen                                                              
840109f9  frexp                                                                
840109f9  frexpl                                                               
84010871  fseek                                                                
84010b6d  getGlobalAddr                                                        
85035868  gpp_num                                                              
85030760  hwiCCErrInt                                                          
85030764  hwiCCXferCompInt                                                     
850306a8  hwiTCErrInt                                                          
8503585c  irqRaised1                                                           
8503585e  irqRaised2                                                           
84010b69  isGblConfigRequired                                                  
8400e995  ldexp                                                                
8400e995  ldexpl                                                               
8400071d  lisrEdma3CCErrHandler0                                               
840003e7  lisrEdma3ComplHandler0                                               
840001f3  lisrEdma3TC0ErrHandler0                                              
840001e3  lisrEdma3TC1ErrHandler0                                              
840001d3  lisrEdma3TC2ErrHandler0                                              
840001c3  lisrEdma3TC3ErrHandler0                                              
840001b3  lisrEdma3TC4ErrHandler0                                              
840001a3  lisrEdma3TC5ErrHandler0                                              
84000193  lisrEdma3TC6ErrHandler0                                              
84000183  lisrEdma3TC7ErrHandler0                                              
8400b5f1  lseek                                                                
84010c11  ltoa                                                                 
84007629  main                                                                 
85035958  main_func_sp                                                         
8400440d  malloc                                                               
840044a1  memalign                                                             
84011b87  memccpy                                                              
84011a69  memchr                                                               
8400f9c1  memcpy                                                               
8401033d  memset                                                               
85030768  myCoreNum                                                            
8503c17c  numDsps                                                              
8503c178  numEdma3Instances                                                    
85035874  numEdma3Tc                                                           
8400b543  open                                                                 
8503076c  pingpongDestBuf                                                      
85030770  pingpongDestBufCopy                                                  
85030774  pingpongSrcBuf                                                       
85030778  pingpongSrcBufCopy                                                   
840104a5  printf                                                               
84009769  process_ping_pong_buffer                                             
85035734  ptrEdma3TcIsrHandler                                                 
85035808  ptrInitCfgArray                                                      
85035804  ptrRMIArray                                                          
8400fc31  putc                                                                 
8400fcb5  putchar                                                              
8400de25  puts                                                                 
8400a34d  qdma_test                                                            
8400823d  qdma_test_with_link                                                  
8400b51f  read                                                                 
8400445d  realloc                                                              
8503077c  region_id                                                            
8400b7dd  registerEdma3Interrupts                                              
8400be4d  remove                                                               
8400b4f7  remove_device                                                        
8400b4b9  rename                                                               
850357fc  resMgrInstance                                                       
85027c00  resMgrInstanceArray                                                  
8502e154  resMgrObj                                                            
8400b79d  sampleConfigScr                                                      
85034730  sampleEdma3GblCfgParams                                              
8400b779  sampleInitXbarEvt                                                    
85032ee8  sampleInstInitConfig                                                 
8400b751  sampleMapXbarEvtToChan                                               
85030788  sampleXbarChanInitConfig                                             
8400e995  scalbn                                                               
8400e995  scalbnl                                                              
85035880  semHandle                                                            
8400e7e9  setvbuf                                                              
85030780  srcBuff1                                                             
85030784  srcBuff2                                                             
84011d61  strchr                                                               
84011ce5  strcmp                                                               
84011db9  strcpy                                                               
84011dcd  strlen                                                               
840116c9  strncpy                                                              
8503540c  tcErrEdmaXbarIndex                                                   
8503546c  tcErrorInt                                                           
850354cc  tcErrorIntXbarInstNo                                                 
84004403  ti_sysbios_BIOS_Module__startupDone__S                               
85035710  ti_sysbios_BIOS_Module__state__V                                     
84003335  ti_sysbios_BIOS_RtsGateProxy_Handle__label__S                        
84003d85  ti_sysbios_BIOS_RtsGateProxy_Module__startupDone__S                  
84003d7d  ti_sysbios_BIOS_RtsGateProxy_Params__init__S                         
840043ff  ti_sysbios_BIOS_RtsGateProxy_Proxy__abstract__S                      
840043fb  ti_sysbios_BIOS_RtsGateProxy_Proxy__delegate__S                      
840043f7  ti_sysbios_BIOS_RtsGateProxy_create                                  
840043f3  ti_sysbios_BIOS_RtsGateProxy_delete                                  
840031db  ti_sysbios_BIOS_RtsGateProxy_enter__E                                
840031c3  ti_sysbios_BIOS_RtsGateProxy_leave__E                                
840031f9  ti_sysbios_BIOS_atExitFunc__I                                        
8400323b  ti_sysbios_BIOS_errorRaiseHook__I                                    
8400327f  ti_sysbios_BIOS_exitFunc__I                                          
84012089  ti_sysbios_BIOS_linkedWithIncorrectBootLibrary__E                    
840031c1  ti_sysbios_BIOS_nullFunc__I                                          
84003295  ti_sysbios_BIOS_registerRTSLock__I                                   
84003221  ti_sysbios_BIOS_removeRTSLock__I                                     
840031df  ti_sysbios_BIOS_rtsLock__I                                           
840031c7  ti_sysbios_BIOS_rtsUnlock__I                                         
84011e29  ti_sysbios_BIOS_setThreadType__E                                     
840032ad  ti_sysbios_BIOS_startFunc__I                                         
84011e39  ti_sysbios_BIOS_start__E                                             
840043ef  ti_sysbios_family_arm_ducati_CTM_Module__startupDone__S              
40000400  ti_sysbios_family_arm_ducati_CTM_ctm                                 
8503c1a4  ti_sysbios_family_arm_ducati_Core_E_mismatchedIds__C                 
8503b56a  ti_sysbios_family_arm_ducati_Core_Module__id__C                      
840043dd  ti_sysbios_family_arm_ducati_Core_Module__startupDone__F             
840043dd  ti_sysbios_family_arm_ducati_Core_Module__startupDone__S             
84011429  ti_sysbios_family_arm_ducati_Core_Module_startup__E                  
00000040  ti_sysbios_family_arm_ducati_Core_core1WaitFlag                      
84011f09  ti_sysbios_family_arm_ducati_Core_getIpuId__E                        
8503c1a8  ti_sysbios_family_arm_ducati_Core_id__C                              
8503c1ac  ti_sysbios_family_arm_ducati_Core_ipuId__C                           
00000009  ti_sysbios_family_arm_ducati_Core_reset                              
84011f19  ti_sysbios_family_arm_ducati_Core_startCore1__I                      
8503c1b0  ti_sysbios_family_arm_ducati_GateDualCore_A_nestedEnter__C           
8503c1b4  ti_sysbios_family_arm_ducati_GateDualCore_E_gateInUse__C             
8503c1b8  ti_sysbios_family_arm_ducati_GateDualCore_E_invalidIndex__C          
840033c1  ti_sysbios_family_arm_ducati_GateDualCore_Handle__label__S           
8400fd61  ti_sysbios_family_arm_ducati_GateDualCore_Instance_init__E           
8503be20  ti_sysbios_family_arm_ducati_GateDualCore_Module__FXNS__C            
8503c1bc  ti_sysbios_family_arm_ducati_GateDualCore_Module__diagsEnabled__C    
8503c1c0  ti_sysbios_family_arm_ducati_GateDualCore_Module__diagsIncluded__C   
8503c1c4  ti_sysbios_family_arm_ducati_GateDualCore_Module__diagsMask__C       
8503bbf6  ti_sysbios_family_arm_ducati_GateDualCore_Module__id__C              
850358d0  ti_sysbios_family_arm_ducati_GateDualCore_Module__root__V            
84003df9  ti_sysbios_family_arm_ducati_GateDualCore_Module__startupDone__F     
84003df9  ti_sysbios_family_arm_ducati_GateDualCore_Module__startupDone__S     
8503595c  ti_sysbios_family_arm_ducati_GateDualCore_Module__state__V           
84010239  ti_sysbios_family_arm_ducati_GateDualCore_Module_startup__E          
8503bf58  ti_sysbios_family_arm_ducati_GateDualCore_Object__DESC__C            
8503c0d8  ti_sysbios_family_arm_ducati_GateDualCore_Object__PARAMS__C          
8503c1c8  ti_sysbios_family_arm_ducati_GateDualCore_Object__count__C           
840033fd  ti_sysbios_family_arm_ducati_GateDualCore_Object__create__S          
840033e1  ti_sysbios_family_arm_ducati_GateDualCore_Object__delete__S          
840043c5  ti_sysbios_family_arm_ducati_GateDualCore_Object__first__S           
840043bb  ti_sysbios_family_arm_ducati_GateDualCore_Object__get__S             
840043ab  ti_sysbios_family_arm_ducati_GateDualCore_Object__next__S            
85035754  ti_sysbios_family_arm_ducati_GateDualCore_Object__table__V           
84003df1  ti_sysbios_family_arm_ducati_GateDualCore_Params__init__S            
8400436d  ti_sysbios_family_arm_ducati_GateDualCore_construct                  
84003da5  ti_sysbios_family_arm_ducati_GateDualCore_create                     
8400435b  ti_sysbios_family_arm_ducati_GateDualCore_delete                     
84004347  ti_sysbios_family_arm_ducati_GateDualCore_destruct                   
8400ea69  ti_sysbios_family_arm_ducati_GateDualCore_enter__E                   
000007f0  ti_sysbios_family_arm_ducati_GateDualCore_gateArray                  
8503bcea  ti_sysbios_family_arm_ducati_GateDualCore_initGates__C               
84011f29  ti_sysbios_family_arm_ducati_GateDualCore_leave__E                   
8503c1cc  ti_sysbios_family_arm_ducati_GateDualCore_numGates__C                
84012019  ti_sysbios_family_arm_ducati_GateDualCore_query__E                   
8503c1d0  ti_sysbios_family_arm_ducati_Timer_E_cannotSupport__C                
8503c1d4  ti_sysbios_family_arm_ducati_Timer_E_invalidTimer__C                 
8503c1d8  ti_sysbios_family_arm_ducati_Timer_E_notAvailable__C                 
84003c13  ti_sysbios_family_arm_ducati_Timer_Handle__label__S                  
84010e49  ti_sysbios_family_arm_ducati_Timer_Instance_finalize__E              
8400c7e1  ti_sysbios_family_arm_ducati_Timer_Instance_init__E                  
8503c448  ti_sysbios_family_arm_ducati_Timer_Module__id__C                     
850358d8  ti_sysbios_family_arm_ducati_Timer_Module__root__V                   
84003c01  ti_sysbios_family_arm_ducati_Timer_Module__startupDone__F            
84003c01  ti_sysbios_family_arm_ducati_Timer_Module__startupDone__S            
8503588c  ti_sysbios_family_arm_ducati_Timer_Module__state__V                  
840107a1  ti_sysbios_family_arm_ducati_Timer_Module_startup__E                 
8503bf78  ti_sysbios_family_arm_ducati_Timer_Object__DESC__C                   
8503bcec  ti_sysbios_family_arm_ducati_Timer_Object__PARAMS__C                 
840042f5  ti_sysbios_family_arm_ducati_Timer_Object__create__S                 
84003b7d  ti_sysbios_family_arm_ducati_Timer_Object__delete__S                 
840042e1  ti_sysbios_family_arm_ducati_Timer_Object__first__S                  
840042d5  ti_sysbios_family_arm_ducati_Timer_Object__get__S                    
840042c5  ti_sysbios_family_arm_ducati_Timer_Object__next__S                   
850355f4  ti_sysbios_family_arm_ducati_Timer_Object__table__V                  
84003bf1  ti_sysbios_family_arm_ducati_Timer_Params__init__S                   
8503c1dc  ti_sysbios_family_arm_ducati_Timer_anyMask__C                        
8400427d  ti_sysbios_family_arm_ducati_Timer_construct                         
84003b99  ti_sysbios_family_arm_ducati_Timer_create                            
8400426d  ti_sysbios_family_arm_ducati_Timer_delete                            
84004259  ti_sysbios_family_arm_ducati_Timer_destruct                          
84011a89  ti_sysbios_family_arm_ducati_Timer_getCount__E                       
84012021  ti_sysbios_family_arm_ducati_Timer_getCurrentTick__E                 
840102b9  ti_sysbios_family_arm_ducati_Timer_getExpiredCounts__E               
84012029  ti_sysbios_family_arm_ducati_Timer_getExpiredTicks__E                
840113a9  ti_sysbios_family_arm_ducati_Timer_getFreq__E                        
84011fb9  ti_sysbios_family_arm_ducati_Timer_getFunc__E                        
84012031  ti_sysbios_family_arm_ducati_Timer_getMaxTicks__E                    
84012039  ti_sysbios_family_arm_ducati_Timer_getPeriod__E                      
84010939  ti_sysbios_family_arm_ducati_Timer_initDevice__I                     
84011211  ti_sysbios_family_arm_ducati_Timer_oneShotStub__E                    
84011ba9  ti_sysbios_family_arm_ducati_Timer_periodicStub__E                   
84011df9  ti_sysbios_family_arm_ducati_Timer_setFunc__E                        
84012091  ti_sysbios_family_arm_ducati_Timer_setNextTick__E                    
84010511  ti_sysbios_family_arm_ducati_Timer_setPeriodMicroSecs__E             
8400ff11  ti_sysbios_family_arm_ducati_Timer_setPeriod__E                      
840103b1  ti_sysbios_family_arm_ducati_Timer_start__E                          
8503c1e0  ti_sysbios_family_arm_ducati_Timer_startupNeeded__C                  
8400f2f9  ti_sysbios_family_arm_ducati_Timer_startup__E                        
840117d9  ti_sysbios_family_arm_ducati_Timer_stop__E                           
8400f921  ti_sysbios_family_arm_ducati_Timer_trigger__E                        
8503c1e4  ti_sysbios_family_arm_m3_Hwi_E_NMI__C                                
8503c1e8  ti_sysbios_family_arm_m3_Hwi_E_alreadyDefined__C                     
8503c1ec  ti_sysbios_family_arm_m3_Hwi_E_busFault__C                           
8503c1f0  ti_sysbios_family_arm_m3_Hwi_E_debugMon__C                           
8503c1f4  ti_sysbios_family_arm_m3_Hwi_E_hardFault__C                          
8503c1f8  ti_sysbios_family_arm_m3_Hwi_E_memFault__C                           
8503c1fc  ti_sysbios_family_arm_m3_Hwi_E_noIsr__C                              
8503c200  ti_sysbios_family_arm_m3_Hwi_E_reserved__C                           
8503c204  ti_sysbios_family_arm_m3_Hwi_E_svCall__C                             
8503c208  ti_sysbios_family_arm_m3_Hwi_E_usageFault__C                         
84004039  ti_sysbios_family_arm_m3_Hwi_Handle__label__S                        
84011469  ti_sysbios_family_arm_m3_Hwi_Instance_finalize__E                    
8400fe81  ti_sysbios_family_arm_m3_Hwi_Instance_init__E                        
8503c20c  ti_sysbios_family_arm_m3_Hwi_LD_end__C                               
8503c210  ti_sysbios_family_arm_m3_Hwi_LM_begin__C                             
850358ae  ti_sysbios_family_arm_m3_Hwi_Module_State_0_excActive__A             
85035960  ti_sysbios_family_arm_m3_Hwi_Module_State_0_excContext__A            
85035964  ti_sysbios_family_arm_m3_Hwi_Module_State_0_excStack__A              
8503c214  ti_sysbios_family_arm_m3_Hwi_Module__diagsEnabled__C                 
8503c218  ti_sysbios_family_arm_m3_Hwi_Module__diagsIncluded__C                
8503c21c  ti_sysbios_family_arm_m3_Hwi_Module__diagsMask__C                    
8503c44a  ti_sysbios_family_arm_m3_Hwi_Module__id__C                           
8503c44c  ti_sysbios_family_arm_m3_Hwi_Module__loggerDefined__C                
8503c220  ti_sysbios_family_arm_m3_Hwi_Module__loggerFxn1__C                   
8503c224  ti_sysbios_family_arm_m3_Hwi_Module__loggerFxn8__C                   
8503c228  ti_sysbios_family_arm_m3_Hwi_Module__loggerObj__C                    
850358e0  ti_sysbios_family_arm_m3_Hwi_Module__root__V                         
84004021  ti_sysbios_family_arm_m3_Hwi_Module__startupDone__F                  
84004021  ti_sysbios_family_arm_m3_Hwi_Module__startupDone__S                  
85035628  ti_sysbios_family_arm_m3_Hwi_Module__state__V                        
8400eb39  ti_sysbios_family_arm_m3_Hwi_Module_startup__E                       
8503c22c  ti_sysbios_family_arm_m3_Hwi_NUM_INTERRUPTS__C                       
8503bf98  ti_sysbios_family_arm_m3_Hwi_Object__DESC__C                         
8503bd20  ti_sysbios_family_arm_m3_Hwi_Object__PARAMS__C                       
8503c230  ti_sysbios_family_arm_m3_Hwi_Object__count__C                        
84004207  ti_sysbios_family_arm_m3_Hwi_Object__create__S                       
84003f99  ti_sysbios_family_arm_m3_Hwi_Object__delete__S                       
840041f9  ti_sysbios_family_arm_m3_Hwi_Object__first__S                        
840041e5  ti_sysbios_family_arm_m3_Hwi_Object__get__S                          
840041cf  ti_sysbios_family_arm_m3_Hwi_Object__next__S                         
8503565c  ti_sysbios_family_arm_m3_Hwi_Object__table__V                        
84004019  ti_sysbios_family_arm_m3_Hwi_Params__init__S                         
8503c234  ti_sysbios_family_arm_m3_Hwi_ccr__C                                  
84004187  ti_sysbios_family_arm_m3_Hwi_construct                               
84003fb9  ti_sysbios_family_arm_m3_Hwi_create                                  
84004183  ti_sysbios_family_arm_m3_Hwi_delete                                  
8400416f  ti_sysbios_family_arm_m3_Hwi_destruct                                
84011f39  ti_sysbios_family_arm_m3_Hwi_disableFxn__E                           
84011019  ti_sysbios_family_arm_m3_Hwi_disableInterrupt__E                     
8400daa9  ti_sysbios_family_arm_m3_Hwi_dispatchC__I                            
850302c8  ti_sysbios_family_arm_m3_Hwi_dispatchTable                           
8400ec09  ti_sysbios_family_arm_m3_Hwi_dispatch__I                             
84011fc1  ti_sysbios_family_arm_m3_Hwi_doSwiRestore__I                         
840119f9  ti_sysbios_family_arm_m3_Hwi_doTaskRestore__I                        
84011061  ti_sysbios_family_arm_m3_Hwi_enableInterrupt__E                      
8400cec1  ti_sysbios_family_arm_m3_Hwi_excBusFault__I                          
8400f0b9  ti_sysbios_family_arm_m3_Hwi_excDebugMon__I                          
84009339  ti_sysbios_family_arm_m3_Hwi_excDumpRegs__I                          
84011aa9  ti_sysbios_family_arm_m3_Hwi_excHandlerAsm__I                        
8503c238  ti_sysbios_family_arm_m3_Hwi_excHandlerFunc__C                       
8400be51  ti_sysbios_family_arm_m3_Hwi_excHandlerMax__I                        
84011ac9  ti_sysbios_family_arm_m3_Hwi_excHandler__I                           
8400f179  ti_sysbios_family_arm_m3_Hwi_excHardFault__I                         
8503c180  ti_sysbios_family_arm_m3_Hwi_excHookFuncs__A                         
8503c23c  ti_sysbios_family_arm_m3_Hwi_excHookFuncs__C                         
8400d5a1  ti_sysbios_family_arm_m3_Hwi_excMemFault__I                          
84011701  ti_sysbios_family_arm_m3_Hwi_excNmi__I                               
840115e9  ti_sysbios_family_arm_m3_Hwi_excNoIsr__I                             
840110a9  ti_sysbios_family_arm_m3_Hwi_excReserved__I                          
840114a9  ti_sysbios_family_arm_m3_Hwi_excSvCall__I                            
8400d199  ti_sysbios_family_arm_m3_Hwi_excUsageFault__I                        
84011fc9  ti_sysbios_family_arm_m3_Hwi_getFunc__E                              
84011fd1  ti_sysbios_family_arm_m3_Hwi_getHookContext__E                       
84012041  ti_sysbios_family_arm_m3_Hwi_getIrp__E                               
8400ff99  ti_sysbios_family_arm_m3_Hwi_initNVIC__E                             
840110f1  ti_sysbios_family_arm_m3_Hwi_initStacks__E                           
8400ecb9  ti_sysbios_family_arm_m3_Hwi_interruptsAreDisabledButShouldNotBe     
8503c240  ti_sysbios_family_arm_m3_Hwi_nullIsrFunc__C                          
e000e000  ti_sysbios_family_arm_m3_Hwi_nvic                                    
84011cb1  ti_sysbios_family_arm_m3_Hwi_pendSV__I                               
84010131  ti_sysbios_family_arm_m3_Hwi_postInit__I                             
8503c244  ti_sysbios_family_arm_m3_Hwi_priGroup__C                             
00000400  ti_sysbios_family_arm_m3_Hwi_resetVectors                            
84011fe9  ti_sysbios_family_arm_m3_Hwi_restoreFxn__E                           
84011cc9  ti_sysbios_family_arm_m3_Hwi_return                                  
84011ff1  ti_sysbios_family_arm_m3_Hwi_setFunc__E                              
84011fd9  ti_sysbios_family_arm_m3_Hwi_setHookContext__E                       
84011fe1  ti_sysbios_family_arm_m3_Hwi_startup__E                              
84011de1  ti_sysbios_family_arm_m3_Hwi_switchFromBootStack__E                  
8503c0f4  ti_sysbios_family_arm_m3_IntrinsicsSupport_Module__FXNS__C           
84003a87  ti_sysbios_family_arm_m3_IntrinsicsSupport_Module__startupDone__S    
84011f95  ti_sysbios_family_arm_m3_IntrinsicsSupport_maxbit__E                 
84003617  ti_sysbios_family_arm_m3_TaskSupport_Module__startupDone__S          
84010e95  ti_sysbios_family_arm_m3_TaskSupport_buildTaskStack                  
84011f49  ti_sysbios_family_arm_m3_TaskSupport_getStackAlignment__E            
84011e49  ti_sysbios_family_arm_m3_TaskSupport_glue                            
8503c248  ti_sysbios_family_arm_m3_TaskSupport_stackAlignment__C               
84011bc9  ti_sysbios_family_arm_m3_TaskSupport_start__E                        
84011e59  ti_sysbios_family_arm_m3_TaskSupport_swap__E                         
8503c24c  ti_sysbios_family_shared_vayu_IntXbar_A_badBenelliIpuId__C           
8503c250  ti_sysbios_family_shared_vayu_IntXbar_A_badBenelliXbarInstanceNum__C 
8503c254  ti_sysbios_family_shared_vayu_IntXbar_A_badIntSourceIdx__C           
85035278  ti_sysbios_family_shared_vayu_IntXbar_Module_State_0_intXbar__A      
8503c258  ti_sysbios_family_shared_vayu_IntXbar_Module__diagsEnabled__C        
8503c25c  ti_sysbios_family_shared_vayu_IntXbar_Module__diagsIncluded__C       
8503c260  ti_sysbios_family_shared_vayu_IntXbar_Module__diagsMask__C           
8503c44e  ti_sysbios_family_shared_vayu_IntXbar_Module__id__C                  
8400416b  ti_sysbios_family_shared_vayu_IntXbar_Module__startupDone__S         
85035968  ti_sysbios_family_shared_vayu_IntXbar_Module__state__V               
8400d451  ti_sysbios_family_shared_vayu_IntXbar_connect__E                     
840101b9  ti_sysbios_family_shared_vayu_IntXbar_initIntXbar__I                 
8400f3b1  ti_sysbios_family_shared_vayu_IntXbar_initXbarRegs__I                
8503c264  ti_sysbios_family_shared_vayu_IntXbar_mmrBaseAddr__C                 
84011b69  ti_sysbios_family_xxx_Hwi_switchAndRunFunc                           
84003167  ti_sysbios_gates_GateHwi_Handle__label__S                            
84012099  ti_sysbios_gates_GateHwi_Instance_init__E                            
8503be44  ti_sysbios_gates_GateHwi_Module__FXNS__C                             
850358e8  ti_sysbios_gates_GateHwi_Module__root__V                             
84003163  ti_sysbios_gates_GateHwi_Module__startupDone__S                      
8503bfb8  ti_sysbios_gates_GateHwi_Object__DESC__C                             
8503c110  ti_sysbios_gates_GateHwi_Object__PARAMS__C                           
84003393  ti_sysbios_gates_GateHwi_Object__create__S                           
84003107  ti_sysbios_gates_GateHwi_Object__delete__S                           
8400415d  ti_sysbios_gates_GateHwi_Object__first__S                            
84004153  ti_sysbios_gates_GateHwi_Object__get__S                              
84004143  ti_sysbios_gates_GateHwi_Object__next__S                             
8503596c  ti_sysbios_gates_GateHwi_Object__table__V                            
8400315b  ti_sysbios_gates_GateHwi_Params__init__S                             
8400411d  ti_sysbios_gates_GateHwi_construct                                   
84003125  ti_sysbios_gates_GateHwi_create                                      
84004111  ti_sysbios_gates_GateHwi_delete                                      
840040fb  ti_sysbios_gates_GateHwi_destruct                                    
84011f59  ti_sysbios_gates_GateHwi_enter__E                                    
84011ff9  ti_sysbios_gates_GateHwi_leave__E                                    
84012049  ti_sysbios_gates_GateHwi_query__E                                    
8503c268  ti_sysbios_gates_GateMutex_A_badContext__C                           
84003335  ti_sysbios_gates_GateMutex_Handle__label__S                          
8503c26c  ti_sysbios_gates_GateMutex_Instance_State_sem__O                     
84011e69  ti_sysbios_gates_GateMutex_Instance_finalize__E                      
84011be9  ti_sysbios_gates_GateMutex_Instance_init__E                          
8503be68  ti_sysbios_gates_GateMutex_Module__FXNS__C                           
8503c270  ti_sysbios_gates_GateMutex_Module__diagsEnabled__C                   
8503c274  ti_sysbios_gates_GateMutex_Module__diagsIncluded__C                  
8503c278  ti_sysbios_gates_GateMutex_Module__diagsMask__C                      
8503c450  ti_sysbios_gates_GateMutex_Module__id__C                             
850358f0  ti_sysbios_gates_GateMutex_Module__root__V                           
84003d85  ti_sysbios_gates_GateMutex_Module__startupDone__S                    
8503bfd8  ti_sysbios_gates_GateMutex_Object__DESC__C                           
8503c128  ti_sysbios_gates_GateMutex_Object__PARAMS__C                         
84003369  ti_sysbios_gates_GateMutex_Object__create__S                         
8400334f  ti_sysbios_gates_GateMutex_Object__delete__S                         
840040ed  ti_sysbios_gates_GateMutex_Object__first__S                          
840040d7  ti_sysbios_gates_GateMutex_Object__get__S                            
840040c7  ti_sysbios_gates_GateMutex_Object__next__S                           
850355bc  ti_sysbios_gates_GateMutex_Object__table__V                          
84003d7d  ti_sysbios_gates_GateMutex_Params__init__S                           
840040a1  ti_sysbios_gates_GateMutex_construct                                 
84003d47  ti_sysbios_gates_GateMutex_create                                    
84004097  ti_sysbios_gates_GateMutex_delete                                    
84004081  ti_sysbios_gates_GateMutex_destruct                                  
8400f469  ti_sysbios_gates_GateMutex_enter__E                                  
84011d01  ti_sysbios_gates_GateMutex_leave__E                                  
84012051  ti_sysbios_gates_GateMutex_query__E                                  
84003d89  ti_sysbios_hal_Cache_CacheProxy_Module__startupDone__S               
84004079  ti_sysbios_hal_Cache_CacheProxy_Proxy__abstract__S                   
84004071  ti_sysbios_hal_Cache_CacheProxy_Proxy__delegate__S                   
8400c04d  ti_sysbios_hal_Cache_CacheProxy_inv__E                               
8400c7dd  ti_sysbios_hal_Cache_CacheProxy_wb__E                                
8400406d  ti_sysbios_hal_Cache_Module__startupDone__S                          
84012059  ti_sysbios_hal_Cache_inv__E                                          
84012061  ti_sysbios_hal_Cache_wb__E                                           
84004053  ti_sysbios_hal_Hwi_Handle__label__S                                  
84004039  ti_sysbios_hal_Hwi_HwiProxy_Handle__label__S                         
84004021  ti_sysbios_hal_Hwi_HwiProxy_Module__startupDone__S                   
84004019  ti_sysbios_hal_Hwi_HwiProxy_Params__init__S                          
84004011  ti_sysbios_hal_Hwi_HwiProxy_Proxy__abstract__S                       
8400400d  ti_sysbios_hal_Hwi_HwiProxy_Proxy__delegate__S                       
84004005  ti_sysbios_hal_Hwi_HwiProxy_create                                   
84003fb1  ti_sysbios_hal_Hwi_HwiProxy_delete                                   
8400c9a5  ti_sysbios_hal_Hwi_HwiProxy_disableInterrupt__E                      
8400cebd  ti_sysbios_hal_Hwi_HwiProxy_enableInterrupt__E                       
84003f95  ti_sysbios_hal_Hwi_HwiProxy_getFunc__E                               
84003f91  ti_sysbios_hal_Hwi_HwiProxy_getHookContext__E                        
84003f8d  ti_sysbios_hal_Hwi_HwiProxy_getIrp__E                                
84003f89  ti_sysbios_hal_Hwi_HwiProxy_setFunc__E                               
84003f85  ti_sysbios_hal_Hwi_HwiProxy_setHookContext__E                        
8400d2fd  ti_sysbios_hal_Hwi_HwiProxy_startup__E                               
8400d59d  ti_sysbios_hal_Hwi_HwiProxy_switchFromBootStack__E                   
84011fa1  ti_sysbios_hal_Hwi_Instance_finalize__E                              
84011ae9  ti_sysbios_hal_Hwi_Instance_init__E                                  
850358f8  ti_sysbios_hal_Hwi_Module__root__V                                   
84003f73  ti_sysbios_hal_Hwi_Module__startupDone__F                            
84003f73  ti_sysbios_hal_Hwi_Module__startupDone__S                            
84011e11  ti_sysbios_hal_Hwi_Module_startup__E                                 
8503bff8  ti_sysbios_hal_Hwi_Object__DESC__C                                   
8503bd50  ti_sysbios_hal_Hwi_Object__PARAMS__C                                 
84003f21  ti_sysbios_hal_Hwi_Object__create__S                                 
84003e23  ti_sysbios_hal_Hwi_Object__delete__S                                 
84003f09  ti_sysbios_hal_Hwi_Object__first__S                                  
84003efd  ti_sysbios_hal_Hwi_Object__get__S                                    
84003ee9  ti_sysbios_hal_Hwi_Object__next__S                                   
84003edd  ti_sysbios_hal_Hwi_Params__init__S                                   
84003e95  ti_sysbios_hal_Hwi_construct                                         
84003e49  ti_sysbios_hal_Hwi_create                                            
84003e3b  ti_sysbios_hal_Hwi_delete                                            
84003e0f  ti_sysbios_hal_Hwi_destruct                                          
84012069  ti_sysbios_hal_Hwi_disableInterrupt__E                               
84012071  ti_sysbios_hal_Hwi_enableInterrupt__E                                
84012079  ti_sysbios_hal_Hwi_startup__E                                        
84003e0b  ti_sysbios_hal_ammu_AMMU_Module__startupDone__S                      
8503c452  ti_sysbios_hal_ammu_AMMU_configureAmmu__C                            
40000800  ti_sysbios_hal_ammu_AMMU_mmu                                         
8503b56c  ti_sysbios_hal_ammu_AMMU_mmuInitConfig__C                            
8503c27c  ti_sysbios_hal_ammu_AMMU_numLargePages__C                            
8503c280  ti_sysbios_hal_ammu_AMMU_numLinePages__C                             
8503c284  ti_sysbios_hal_ammu_AMMU_numMediumPages__C                           
8503c288  ti_sysbios_hal_ammu_AMMU_numSmallPages__C                            
840033c1  ti_sysbios_hal_unicache_Cache_Module_GateProxy_Handle__label__S      
84003df9  ti_sysbios_hal_unicache_Cache_Module_GateProxy_Module__startupDone__S
84003df1  ti_sysbios_hal_unicache_Cache_Module_GateProxy_Params__init__S       
84003ded  ti_sysbios_hal_unicache_Cache_Module_GateProxy_Proxy__abstract__S    
84003de9  ti_sysbios_hal_unicache_Cache_Module_GateProxy_Proxy__delegate__S    
84003de5  ti_sysbios_hal_unicache_Cache_Module_GateProxy_create                
84003d95  ti_sysbios_hal_unicache_Cache_Module_GateProxy_delete                
84003d91  ti_sysbios_hal_unicache_Cache_Module_GateProxy_enter__E              
84003d8d  ti_sysbios_hal_unicache_Cache_Module_GateProxy_leave__E              
8503bc7c  ti_sysbios_hal_unicache_Cache_Module__FXNS__C                        
8503c28c  ti_sysbios_hal_unicache_Cache_Module__gateObj__C                     
84003d89  ti_sysbios_hal_unicache_Cache_Module__startupDone__S                 
40000000  ti_sysbios_hal_unicache_Cache_cache                                  
8503c454  ti_sysbios_hal_unicache_Cache_configureCache__C                      
840114e9  ti_sysbios_hal_unicache_Cache_disable__E                             
8503c456  ti_sysbios_hal_unicache_Cache_enableCache__C                         
84011529  ti_sysbios_hal_unicache_Cache_enable__E                              
8400d301  ti_sysbios_hal_unicache_Cache_inv__E                                 
8503c290  ti_sysbios_hal_unicache_Cache_l1ocpConfig__C                         
8503c294  ti_sysbios_hal_unicache_Cache_l1secConfig__C                         
8503c458  ti_sysbios_hal_unicache_Cache_l2CacheSupported__C                    
8503c298  ti_sysbios_hal_unicache_Cache_l2ocpConfig__C                         
8503c29c  ti_sysbios_hal_unicache_Cache_l2secConfig__C                         
8503c2a0  ti_sysbios_hal_unicache_Cache_maxLineModeBufSize__C                  
840113e9  ti_sysbios_hal_unicache_Cache_seizeRegs__I                           
8400c441  ti_sysbios_hal_unicache_Cache_startup__I                             
84011981  ti_sysbios_hal_unicache_Cache_wait__E                                
84011259  ti_sysbios_hal_unicache_Cache_wbAll__E                               
84011139  ti_sysbios_hal_unicache_Cache_wbInvAll__E                            
8400df81  ti_sysbios_hal_unicache_Cache_wbInv__E                               
8400e0a9  ti_sysbios_hal_unicache_Cache_wb__E                                  
8503c2a4  ti_sysbios_heaps_HeapMem_A_align__C                                  
8503c2a8  ti_sysbios_heaps_HeapMem_A_heapSize__C                               
8503c2ac  ti_sysbios_heaps_HeapMem_A_invalidFree__C                            
8503c2b0  ti_sysbios_heaps_HeapMem_A_zeroBlock__C                              
8503c2b4  ti_sysbios_heaps_HeapMem_E_memory__C                                 
840032d7  ti_sysbios_heaps_HeapMem_Handle__label__S                            
85000000  ti_sysbios_heaps_HeapMem_Instance_State_0_buf__A                     
8400d829  ti_sysbios_heaps_HeapMem_Instance_init__E                            
84003335  ti_sysbios_heaps_HeapMem_Module_GateProxy_Handle__label__S           
84003d85  ti_sysbios_heaps_HeapMem_Module_GateProxy_Module__startupDone__S     
84003d7d  ti_sysbios_heaps_HeapMem_Module_GateProxy_Params__init__S            
84003d79  ti_sysbios_heaps_HeapMem_Module_GateProxy_Proxy__abstract__S         
84003d75  ti_sysbios_heaps_HeapMem_Module_GateProxy_Proxy__delegate__S         
84003d71  ti_sysbios_heaps_HeapMem_Module_GateProxy_create                     
84003d43  ti_sysbios_heaps_HeapMem_Module_GateProxy_delete                     
84003d3f  ti_sysbios_heaps_HeapMem_Module_GateProxy_enter__E                   
84003d3b  ti_sysbios_heaps_HeapMem_Module_GateProxy_leave__E                   
8400d965  ti_sysbios_heaps_HeapMem_Module_GateProxy_query__E                   
8503bda8  ti_sysbios_heaps_HeapMem_Module__FXNS__C                             
8503c2b8  ti_sysbios_heaps_HeapMem_Module__diagsEnabled__C                     
8503c2bc  ti_sysbios_heaps_HeapMem_Module__diagsIncluded__C                    
8503c2c0  ti_sysbios_heaps_HeapMem_Module__diagsMask__C                        
8503c2c4  ti_sysbios_heaps_HeapMem_Module__gateObj__C                          
8503c45a  ti_sysbios_heaps_HeapMem_Module__id__C                               
85035900  ti_sysbios_heaps_HeapMem_Module__root__V                             
840034b1  ti_sysbios_heaps_HeapMem_Module__startupDone__S                      
8503c018  ti_sysbios_heaps_HeapMem_Object__DESC__C                             
8503be8c  ti_sysbios_heaps_HeapMem_Object__PARAMS__C                           
8503c2c8  ti_sysbios_heaps_HeapMem_Object__count__C                            
8400330b  ti_sysbios_heaps_HeapMem_Object__create__S                           
840032f1  ti_sysbios_heaps_HeapMem_Object__delete__S                           
84003d2d  ti_sysbios_heaps_HeapMem_Object__first__S                            
84003d15  ti_sysbios_heaps_HeapMem_Object__get__S                              
84003d05  ti_sysbios_heaps_HeapMem_Object__next__S                             
850357d0  ti_sysbios_heaps_HeapMem_Object__table__V                            
840034a9  ti_sysbios_heaps_HeapMem_Params__init__S                             
8400c051  ti_sysbios_heaps_HeapMem_allocUnprotected__E                         
84010b11  ti_sysbios_heaps_HeapMem_alloc__E                                    
84003cdf  ti_sysbios_heaps_HeapMem_construct                                   
84003469  ti_sysbios_heaps_HeapMem_create                                      
84003cdb  ti_sysbios_heaps_HeapMem_delete                                      
84003cc5  ti_sysbios_heaps_HeapMem_destruct                                    
8400b9d9  ti_sysbios_heaps_HeapMem_freeUnprotected__E                          
84011809  ti_sysbios_heaps_HeapMem_free__E                                     
84010ee1  ti_sysbios_heaps_HeapMem_getStats__E                                 
84011569  ti_sysbios_heaps_HeapMem_init__I                                     
84012001  ti_sysbios_heaps_HeapMem_isBlocking__E                               
8503c2cc  ti_sysbios_heaps_HeapMem_reqAlign__C                                 
8503c2d0  ti_sysbios_interfaces_ICache_Interface__BASE__C                      
8503c2d4  ti_sysbios_interfaces_IIntrinsicsSupport_Interface__BASE__C          
8503c2d8  ti_sysbios_knl_Clock_A_badThreadType__C                              
84003cab  ti_sysbios_knl_Clock_Handle__label__S                                
8400f7d9  ti_sysbios_knl_Clock_Instance_finalize__E                            
8400e1d1  ti_sysbios_knl_Clock_Instance_init__E                                
8503c2dc  ti_sysbios_knl_Clock_LM_begin__C                                     
8503c2e0  ti_sysbios_knl_Clock_LM_tick__C                                      
8503c2e4  ti_sysbios_knl_Clock_LW_delayed__C                                   
8503c2e8  ti_sysbios_knl_Clock_Module_State_clockQ__O                          
8503c2ec  ti_sysbios_knl_Clock_Module__diagsEnabled__C                         
8503c2f0  ti_sysbios_knl_Clock_Module__diagsIncluded__C                        
8503c2f4  ti_sysbios_knl_Clock_Module__diagsMask__C                            
8503c45c  ti_sysbios_knl_Clock_Module__id__C                                   
8503c45e  ti_sysbios_knl_Clock_Module__loggerDefined__C                        
8503c2f8  ti_sysbios_knl_Clock_Module__loggerFxn1__C                           
8503c2fc  ti_sysbios_knl_Clock_Module__loggerFxn2__C                           
8503c300  ti_sysbios_knl_Clock_Module__loggerObj__C                            
85035908  ti_sysbios_knl_Clock_Module__root__V                                 
84003c99  ti_sysbios_knl_Clock_Module__startupDone__F                          
84003c99  ti_sysbios_knl_Clock_Module__startupDone__S                          
850356bc  ti_sysbios_knl_Clock_Module__state__V                                
84011a21  ti_sysbios_knl_Clock_Module_startup__E                               
8503c038  ti_sysbios_knl_Clock_Object__DESC__C                                 
8503beb0  ti_sysbios_knl_Clock_Object__PARAMS__C                               
84003c5f  ti_sysbios_knl_Clock_Object__create__S                               
84003ab9  ti_sysbios_knl_Clock_Object__delete__S                               
84003c51  ti_sysbios_knl_Clock_Object__first__S                                
84003c45  ti_sysbios_knl_Clock_Object__get__S                                  
84003c35  ti_sysbios_knl_Clock_Object__next__S                                 
84003c2d  ti_sysbios_knl_Clock_Params__init__S                                 
84003c13  ti_sysbios_knl_Clock_TimerProxy_Handle__label__S                     
84003c01  ti_sysbios_knl_Clock_TimerProxy_Module__startupDone__S               
84003bf1  ti_sysbios_knl_Clock_TimerProxy_Params__init__S                      
84003bed  ti_sysbios_knl_Clock_TimerProxy_Proxy__abstract__S                   
84003be9  ti_sysbios_knl_Clock_TimerProxy_Proxy__delegate__S                   
84003be5  ti_sysbios_knl_Clock_TimerProxy_create                               
84003b95  ti_sysbios_knl_Clock_TimerProxy_delete                               
84003b79  ti_sysbios_knl_Clock_TimerProxy_getCount__E                          
84003b71  ti_sysbios_knl_Clock_TimerProxy_getCurrentTick__E                    
84003b69  ti_sysbios_knl_Clock_TimerProxy_getExpiredCounts__E                  
84003b65  ti_sysbios_knl_Clock_TimerProxy_getExpiredTicks__E                   
84003b61  ti_sysbios_knl_Clock_TimerProxy_getFreq__E                           
84003b5d  ti_sysbios_knl_Clock_TimerProxy_getFunc__E                           
84003b59  ti_sysbios_knl_Clock_TimerProxy_getMaxTicks__E                       
84003b55  ti_sysbios_knl_Clock_TimerProxy_getPeriod__E                         
84003b51  ti_sysbios_knl_Clock_TimerProxy_setFunc__E                           
84003b4d  ti_sysbios_knl_Clock_TimerProxy_setNextTick__E                       
84003b49  ti_sysbios_knl_Clock_TimerProxy_setPeriodMicroSecs__E                
84003b45  ti_sysbios_knl_Clock_TimerProxy_setPeriod__E                         
84003b41  ti_sysbios_knl_Clock_TimerProxy_start__E                             
84003b3d  ti_sysbios_knl_Clock_TimerProxy_stop__E                              
84003b39  ti_sysbios_knl_Clock_TimerProxy_trigger__E                           
84003b0d  ti_sysbios_knl_Clock_construct                                       
84003ad7  ti_sysbios_knl_Clock_create                                          
84003ad3  ti_sysbios_knl_Clock_delete                                          
84003a9d  ti_sysbios_knl_Clock_destruct                                        
84003259  ti_sysbios_knl_Clock_doTick__I                                       
84010999  ti_sysbios_knl_Clock_logTick__E                                      
84010429  ti_sysbios_knl_Clock_start__E                                        
8400d969  ti_sysbios_knl_Clock_workFunc__E                                     
84003a8f  ti_sysbios_knl_Idle_Module__startupDone__S                           
8503c188  ti_sysbios_knl_Idle_funcList__C                                      
84011ee9  ti_sysbios_knl_Idle_loop__E                                          
84011b09  ti_sysbios_knl_Idle_run__E                                           
84003a8b  ti_sysbios_knl_Intrinsics_Module__startupDone__S                     
84003a87  ti_sysbios_knl_Intrinsics_SupportProxy_Module__startupDone__S        
84003a83  ti_sysbios_knl_Intrinsics_SupportProxy_Proxy__abstract__S            
84003a7f  ti_sysbios_knl_Intrinsics_SupportProxy_Proxy__delegate__S            
84003a65  ti_sysbios_knl_Queue_Handle__label__S                                
84012009  ti_sysbios_knl_Queue_Instance_init__E                                
85035910  ti_sysbios_knl_Queue_Module__root__V                                 
84003a61  ti_sysbios_knl_Queue_Module__startupDone__S                          
8503c058  ti_sysbios_knl_Queue_Object__DESC__C                                 
8503c140  ti_sysbios_knl_Queue_Object__PARAMS__C                               
84003a37  ti_sysbios_knl_Queue_Object__create__S                               
8400398d  ti_sysbios_knl_Queue_Object__delete__S                               
84003a29  ti_sysbios_knl_Queue_Object__first__S                                
84003a1d  ti_sysbios_knl_Queue_Object__get__S                                  
84003a0d  ti_sysbios_knl_Queue_Object__next__S                                 
84003a05  ti_sysbios_knl_Queue_Params__init__S                                 
840039df  ti_sysbios_knl_Queue_construct                                       
840039b5  ti_sysbios_knl_Queue_create                                          
840039a7  ti_sysbios_knl_Queue_delete                                          
84003971  ti_sysbios_knl_Queue_destruct                                        
84011ef9  ti_sysbios_knl_Queue_empty__E                                        
8503c304  ti_sysbios_knl_Semaphore_A_badContext__C                             
8503c308  ti_sysbios_knl_Semaphore_A_noEvents__C                               
8503c30c  ti_sysbios_knl_Semaphore_A_overflow__C                               
8503c310  ti_sysbios_knl_Semaphore_A_pendTaskDisabled__C                       
84003957  ti_sysbios_knl_Semaphore_Handle__label__S                            
8503c314  ti_sysbios_knl_Semaphore_Instance_State_pendQ__O                     
84011e79  ti_sysbios_knl_Semaphore_Instance_finalize__E                        
8400fa61  ti_sysbios_knl_Semaphore_Instance_init__E                            
8503c318  ti_sysbios_knl_Semaphore_LM_pend__C                                  
8503c31c  ti_sysbios_knl_Semaphore_LM_post__C                                  
8503c320  ti_sysbios_knl_Semaphore_Module__diagsEnabled__C                     
8503c324  ti_sysbios_knl_Semaphore_Module__diagsIncluded__C                    
8503c328  ti_sysbios_knl_Semaphore_Module__diagsMask__C                        
8503c460  ti_sysbios_knl_Semaphore_Module__id__C                               
8503c462  ti_sysbios_knl_Semaphore_Module__loggerDefined__C                    
8503c32c  ti_sysbios_knl_Semaphore_Module__loggerFxn2__C                       
8503c330  ti_sysbios_knl_Semaphore_Module__loggerFxn4__C                       
8503c334  ti_sysbios_knl_Semaphore_Module__loggerObj__C                        
85035918  ti_sysbios_knl_Semaphore_Module__root__V                             
84003953  ti_sysbios_knl_Semaphore_Module__startupDone__S                      
8503c078  ti_sysbios_knl_Semaphore_Object__DESC__C                             
8503bed4  ti_sysbios_knl_Semaphore_Object__PARAMS__C                           
84003921  ti_sysbios_knl_Semaphore_Object__create__S                           
84003869  ti_sysbios_knl_Semaphore_Object__delete__S                           
84003907  ti_sysbios_knl_Semaphore_Object__first__S                            
840038f7  ti_sysbios_knl_Semaphore_Object__get__S                              
840038e7  ti_sysbios_knl_Semaphore_Object__next__S                             
840038df  ti_sysbios_knl_Semaphore_Params__init__S                             
840038b5  ti_sysbios_knl_Semaphore_construct                                   
84003887  ti_sysbios_knl_Semaphore_create                                      
84003883  ti_sysbios_knl_Semaphore_delete                                      
84003853  ti_sysbios_knl_Semaphore_destruct                                    
840117a1  ti_sysbios_knl_Semaphore_pendTimeout__I                              
8400b0f1  ti_sysbios_knl_Semaphore_pend__E                                     
8400d6e9  ti_sysbios_knl_Semaphore_post__E                                     
8503c338  ti_sysbios_knl_Swi_A_badPriority__C                                  
84003839  ti_sysbios_knl_Swi_Handle__label__S                                  
84010c69  ti_sysbios_knl_Swi_Instance_finalize__E                              
8400ee69  ti_sysbios_knl_Swi_Instance_init__E                                  
8503c33c  ti_sysbios_knl_Swi_LD_end__C                                         
8503c340  ti_sysbios_knl_Swi_LM_begin__C                                       
8503c344  ti_sysbios_knl_Swi_LM_post__C                                        
85035178  ti_sysbios_knl_Swi_Module_State_0_readyQ__A                          
8503c348  ti_sysbios_knl_Swi_Module__diagsEnabled__C                           
8503c34c  ti_sysbios_knl_Swi_Module__diagsIncluded__C                          
8503c350  ti_sysbios_knl_Swi_Module__diagsMask__C                              
8503c464  ti_sysbios_knl_Swi_Module__id__C                                     
8503c466  ti_sysbios_knl_Swi_Module__loggerDefined__C                          
8503c354  ti_sysbios_knl_Swi_Module__loggerFxn1__C                             
8503c358  ti_sysbios_knl_Swi_Module__loggerFxn4__C                             
8503c35c  ti_sysbios_knl_Swi_Module__loggerObj__C                              
85035920  ti_sysbios_knl_Swi_Module__root__V                                   
8400381f  ti_sysbios_knl_Swi_Module__startupDone__F                            
8400381f  ti_sysbios_knl_Swi_Module__startupDone__S                            
850357b4  ti_sysbios_knl_Swi_Module__state__V                                  
840119a9  ti_sysbios_knl_Swi_Module_startup__E                                 
8503c098  ti_sysbios_knl_Swi_Object__DESC__C                                   
8503bdd0  ti_sysbios_knl_Swi_Object__PARAMS__C                                 
8503c360  ti_sysbios_knl_Swi_Object__count__C                                  
840037d1  ti_sysbios_knl_Swi_Object__create__S                                 
840036e9  ti_sysbios_knl_Swi_Object__delete__S                                 
840037bf  ti_sysbios_knl_Swi_Object__first__S                                  
840037b1  ti_sysbios_knl_Swi_Object__get__S                                    
84003797  ti_sysbios_knl_Swi_Object__next__S                                   
8503568c  ti_sysbios_knl_Swi_Object__table__V                                  
8400378f  ti_sysbios_knl_Swi_Params__init__S                                   
8400374d  ti_sysbios_knl_Swi_construct                                         
84003705  ti_sysbios_knl_Swi_create                                            
84003701  ti_sysbios_knl_Swi_delete                                            
840036cf  ti_sysbios_knl_Swi_destruct                                          
84011e89  ti_sysbios_knl_Swi_disable__E                                        
8400f681  ti_sysbios_knl_Swi_post__E                                           
84010661  ti_sysbios_knl_Swi_restoreHwi__E                                     
84010f31  ti_sysbios_knl_Swi_runLoop__I                                        
8400e2f1  ti_sysbios_knl_Swi_run__I                                            
84010a59  ti_sysbios_knl_Swi_schedule__I                                       
840115a9  ti_sysbios_knl_Swi_startup__E                                        
8503c364  ti_sysbios_knl_Task_A_badPriority__C                                 
8503c368  ti_sysbios_knl_Task_A_badTaskState__C                                
8503c36c  ti_sysbios_knl_Task_A_badThreadType__C                               
8503c370  ti_sysbios_knl_Task_A_noPendElem__C                                  
840036b5  ti_sysbios_knl_Task_Handle__label__S                                 
8503e640  ti_sysbios_knl_Task_Instance_State_0_stack__A                        
8400bc29  ti_sysbios_knl_Task_Instance_finalize__E                             
8400c9a9  ti_sysbios_knl_Task_Instance_init__E                                 
8503c374  ti_sysbios_knl_Task_LD_block__C                                      
8503c378  ti_sysbios_knl_Task_LD_exit__C                                       
8503c37c  ti_sysbios_knl_Task_LD_ready__C                                      
8503c380  ti_sysbios_knl_Task_LM_switch__C                                     
85035970  ti_sysbios_knl_Task_Module_State_0_idleTask__A                       
850351f8  ti_sysbios_knl_Task_Module_State_0_readyQ__A                         
8503c384  ti_sysbios_knl_Task_Module_State_inactiveQ__O                        
8503c388  ti_sysbios_knl_Task_Module__diagsEnabled__C                          
8503c38c  ti_sysbios_knl_Task_Module__diagsIncluded__C                         
8503c390  ti_sysbios_knl_Task_Module__diagsMask__C                             
8503c468  ti_sysbios_knl_Task_Module__id__C                                    
8503c46a  ti_sysbios_knl_Task_Module__loggerDefined__C                         
8503c394  ti_sysbios_knl_Task_Module__loggerFxn2__C                            
8503c398  ti_sysbios_knl_Task_Module__loggerFxn4__C                            
8503c39c  ti_sysbios_knl_Task_Module__loggerObj__C                             
85035928  ti_sysbios_knl_Task_Module__root__V                                  
840036a3  ti_sysbios_knl_Task_Module__startupDone__F                           
840036a3  ti_sysbios_knl_Task_Module__startupDone__S                           
85035578  ti_sysbios_knl_Task_Module__state__V                                 
8400cd21  ti_sysbios_knl_Task_Module_startup__E                                
8503c0b8  ti_sysbios_knl_Task_Object__DESC__C                                  
8503bc40  ti_sysbios_knl_Task_Object__PARAMS__C                                
8503c3a0  ti_sysbios_knl_Task_Object__count__C                                 
84003655  ti_sysbios_knl_Task_Object__create__S                                
84003559  ti_sysbios_knl_Task_Object__delete__S                                
8400363f  ti_sysbios_knl_Task_Object__first__S                                 
84003633  ti_sysbios_knl_Task_Object__get__S                                   
84003623  ti_sysbios_knl_Task_Object__next__S                                  
8503552c  ti_sysbios_knl_Task_Object__table__V                                 
8400361b  ti_sysbios_knl_Task_Params__init__S                                  
84003617  ti_sysbios_knl_Task_SupportProxy_Module__startupDone__S              
84003613  ti_sysbios_knl_Task_SupportProxy_Proxy__abstract__S                  
8400360f  ti_sysbios_knl_Task_SupportProxy_Proxy__delegate__S                  
8400daa5  ti_sysbios_knl_Task_SupportProxy_getStackAlignment__E                
8400df7d  ti_sysbios_knl_Task_SupportProxy_start__E                            
8400e2ed  ti_sysbios_knl_Task_SupportProxy_swap__E                             
8503c3a4  ti_sysbios_knl_Task_allBlockedFunc__C                                
84010f81  ti_sysbios_knl_Task_allBlockedFunction__I                            
8400f731  ti_sysbios_knl_Task_blockI__E                                        
840035cd  ti_sysbios_knl_Task_construct                                        
8400357d  ti_sysbios_knl_Task_create                                           
8503c3a8  ti_sysbios_knl_Task_defaultStackHeap__C                              
8503c3ac  ti_sysbios_knl_Task_defaultStackSize__C                              
84003571  ti_sysbios_knl_Task_delete                                           
84003541  ti_sysbios_knl_Task_destruct                                         
84011e99  ti_sysbios_knl_Task_disable__E                                       
84012011  ti_sysbios_knl_Task_enable__E                                        
84011c09  ti_sysbios_knl_Task_enter__I                                         
8400eff9  ti_sysbios_knl_Task_exit__E                                          
8503c3b0  ti_sysbios_knl_Task_numConstructedTasks__C                           
8400f521  ti_sysbios_knl_Task_postInit__I                                      
84011621  ti_sysbios_knl_Task_processVitalTaskFlag__I                          
840118f9  ti_sysbios_knl_Task_restore__E                                       
8400ef31  ti_sysbios_knl_Task_schedule__I                                      
8400f239  ti_sysbios_knl_Task_startCore__E                                     
84012081  ti_sysbios_knl_Task_startup__E                                       
84011e61  ti_sysbios_knl_Task_swapReturn                                       
8400fdf1  ti_sysbios_knl_Task_unblockI__E                                      
8400b495  unlink                                                               
8400b711  unregisterEdma3Interrupts                                            
85035800  userInitConfig                                                       
8502b8a0  userInstInitConfigArray                                              
8400b405  write                                                                
8503c3b4  xdc_runtime_Assert_E_assertFailed__C                                 
84003533  xdc_runtime_Assert_Module__startupDone__S                            
84010cbd  xdc_runtime_Assert_raise__I                                          
8503c3b8  xdc_runtime_Core_A_initializedParams__C                              
8503c3bc  xdc_runtime_Core_Module__diagsEnabled__C                             
8503c3c0  xdc_runtime_Core_Module__diagsIncluded__C                            
8503c3c4  xdc_runtime_Core_Module__diagsMask__C                                
8503c46c  xdc_runtime_Core_Module__id__C                                       
8400352f  xdc_runtime_Core_Module__startupDone__S                              
84011735  xdc_runtime_Core_assignLabel__I                                      
84011181  xdc_runtime_Core_assignParams__I                                     
8400ecd5  xdc_runtime_Core_constructObject__I                                  
8400e701  xdc_runtime_Core_createObject__I                                     
84010809  xdc_runtime_Core_deleteObject__I                                     
8400352b  xdc_runtime_Defaults_Module__startupDone__S                          
84003527  xdc_runtime_Diags_Module__startupDone__S                             
8503c3c8  xdc_runtime_Error_E_memory__C                                        
85035774  xdc_runtime_Error_IgnoreBlock                                        
8503c3cc  xdc_runtime_Error_Module__diagsEnabled__C                            
8503c3d0  xdc_runtime_Error_Module__diagsIncluded__C                           
8503c3d4  xdc_runtime_Error_Module__diagsMask__C                               
8503c46e  xdc_runtime_Error_Module__loggerDefined__C                           
8503c3d8  xdc_runtime_Error_Module__loggerFxn8__C                              
8503c3dc  xdc_runtime_Error_Module__loggerObj__C                               
84003523  xdc_runtime_Error_Module__startupDone__S                             
85035978  xdc_runtime_Error_Module__state__V                                   
84011c25  xdc_runtime_Error_check__E                                           
8400ea65  xdc_runtime_Error_getCode__E                                         
8400ef2d  xdc_runtime_Error_getSite__E                                         
84011d19  xdc_runtime_Error_init__E                                            
8503c470  xdc_runtime_Error_maxDepth__C                                        
8400de4d  xdc_runtime_Error_policyDefault__E                                   
8503c3e0  xdc_runtime_Error_policyFxn__C                                       
8503bb25  xdc_runtime_Error_policy__C                                          
84010581  xdc_runtime_Error_print__E                                           
8503c3e4  xdc_runtime_Error_raiseHook__C                                       
84011c41  xdc_runtime_Error_raiseX__E                                          
8401129d  xdc_runtime_Error_setX__E                                            
8400351f  xdc_runtime_Gate_Module__startupDone__S                              
84011f65  xdc_runtime_Gate_enterSystem__E                                      
84011ea9  xdc_runtime_Gate_leaveSystem__E                                      
8503c3e8  xdc_runtime_IGateProvider_Interface__BASE__C                         
8400350d  xdc_runtime_IGateProvider_create                                     
840034f9  xdc_runtime_IGateProvider_delete                                     
8503c3ec  xdc_runtime_IHeap_Interface__BASE__C                                 
840034e7  xdc_runtime_IHeap_create                                             
840034d9  xdc_runtime_IHeap_delete                                             
8503c3f0  xdc_runtime_IModule_Interface__BASE__C                               
8503c3f4  xdc_runtime_ISystemSupport_Interface__BASE__C                        
8503c3f8  xdc_runtime_Log_L_error__C                                           
840034d5  xdc_runtime_Log_Module__startupDone__S                               
84003167  xdc_runtime_Main_Module_GateProxy_Handle__label__S                   
84003163  xdc_runtime_Main_Module_GateProxy_Module__startupDone__S             
8400315b  xdc_runtime_Main_Module_GateProxy_Params__init__S                    
840034d1  xdc_runtime_Main_Module_GateProxy_Proxy__abstract__S                 
840034cd  xdc_runtime_Main_Module_GateProxy_Proxy__delegate__S                 
840034c5  xdc_runtime_Main_Module_GateProxy_create                             
840034c1  xdc_runtime_Main_Module_GateProxy_delete                             
840034bd  xdc_runtime_Main_Module_GateProxy_enter__E                           
840034b9  xdc_runtime_Main_Module_GateProxy_leave__E                           
840034b5  xdc_runtime_Main_Module__startupDone__S                              
840032d7  xdc_runtime_Memory_HeapProxy_Handle__label__S                        
840034b1  xdc_runtime_Memory_HeapProxy_Module__startupDone__S                  
840034a9  xdc_runtime_Memory_HeapProxy_Params__init__S                         
840034a5  xdc_runtime_Memory_HeapProxy_Proxy__abstract__S                      
840034a1  xdc_runtime_Memory_HeapProxy_Proxy__delegate__S                      
84003497  xdc_runtime_Memory_HeapProxy_alloc__E                                
84003493  xdc_runtime_Memory_HeapProxy_create                                  
84003465  xdc_runtime_Memory_HeapProxy_delete                                  
84003455  xdc_runtime_Memory_HeapProxy_free__E                                 
84003447  xdc_runtime_Memory_HeapProxy_getStats__E                             
8400343d  xdc_runtime_Memory_HeapProxy_isBlocking__E                           
8503c472  xdc_runtime_Memory_Module__id__C                                     
840031bd  xdc_runtime_Memory_Module__startupDone__S                            
85035974  xdc_runtime_Memory_Module__state__V                                  
840106cd  xdc_runtime_Memory_alloc__E                                          
84011f71  xdc_runtime_Memory_calloc__E                                         
8503c3fc  xdc_runtime_Memory_defaultHeapInstance__C                            
84011eb9  xdc_runtime_Memory_free__E                                           
84011f7d  xdc_runtime_Memory_getMaxDefaultTypeAlign__E                         
84011c5d  xdc_runtime_Memory_valloc__E                                         
840031b9  xdc_runtime_Registry_Module__startupDone__S                          
85035930  xdc_runtime_Registry_Module__state__V                                
84011b29  xdc_runtime_Registry_findById__E                                     
840031b5  xdc_runtime_Startup_Module__startupDone__S                           
85035938  xdc_runtime_Startup_Module__state__V                                 
00000001  xdc_runtime_Startup__EXECFXN__C                                      
00000001  xdc_runtime_Startup__RESETFXN__C                                     
8503c400  xdc_runtime_Startup_execImpl__C                                      
84010d11  xdc_runtime_Startup_exec__E                                          
840031a3  xdc_runtime_Startup_exec__I                                          
8503c16c  xdc_runtime_Startup_firstFxns__A                                     
8503c190  xdc_runtime_Startup_firstFxns__C                                     
8503c404  xdc_runtime_Startup_lastFxns__A                                      
8503c198  xdc_runtime_Startup_lastFxns__C                                      
8503c408  xdc_runtime_Startup_maxPasses__C                                     
8400eff5  xdc_runtime_Startup_reset__I                                         
84011f89  xdc_runtime_Startup_rtsDone__E                                       
8503c158  xdc_runtime_Startup_sfxnRts__A                                       
8503c40c  xdc_runtime_Startup_sfxnRts__C                                       
8503bdf8  xdc_runtime_Startup_sfxnTab__A                                       
8503c410  xdc_runtime_Startup_sfxnTab__C                                       
8400e609  xdc_runtime_Startup_startMods__I                                     
8502fec8  xdc_runtime_SysMin_Module_State_0_outbuf__A                          
8503bd7c  xdc_runtime_SysMin_Module__FXNS__C                                   
840030db  xdc_runtime_SysMin_Module__startupDone__F                            
840030db  xdc_runtime_SysMin_Module__startupDone__S                            
85035898  xdc_runtime_SysMin_Module__state__V                                  
84011b49  xdc_runtime_SysMin_Module_startup__E                                 
84011839  xdc_runtime_SysMin_abort__E                                          
8503c414  xdc_runtime_SysMin_bufSize__C                                        
84011c79  xdc_runtime_SysMin_exit__E                                           
8503c474  xdc_runtime_SysMin_flushAtExit__C                                    
840112e1  xdc_runtime_SysMin_flush__E                                          
8503c418  xdc_runtime_SysMin_outputFunc__C                                     
84003181  xdc_runtime_SysMin_output__I                                         
84011659  xdc_runtime_SysMin_putch__E                                          
84011ec9  xdc_runtime_SysMin_ready__E                                          
84003167  xdc_runtime_System_Module_GateProxy_Handle__label__S                 
84003163  xdc_runtime_System_Module_GateProxy_Module__startupDone__S           
8400315b  xdc_runtime_System_Module_GateProxy_Params__init__S                  
84003157  xdc_runtime_System_Module_GateProxy_Proxy__abstract__S               
84003153  xdc_runtime_System_Module_GateProxy_Proxy__delegate__S               
8400314f  xdc_runtime_System_Module_GateProxy_create                           
84003121  xdc_runtime_System_Module_GateProxy_delete                           
84003103  xdc_runtime_System_Module_GateProxy_enter__E                         
840030ff  xdc_runtime_System_Module_GateProxy_leave__E                         
85035794  xdc_runtime_System_Module_State_0_atexitHandlers__A                  
8503c41c  xdc_runtime_System_Module__gateObj__C                                
840030ed  xdc_runtime_System_Module__startupDone__F                            
840030ed  xdc_runtime_System_Module__startupDone__S                            
85035940  xdc_runtime_System_Module__state__V                                  
84009333  xdc_runtime_System_Module_startup__E                                 
840030db  xdc_runtime_System_SupportProxy_Module__startupDone__S               
840030d7  xdc_runtime_System_SupportProxy_Proxy__abstract__S                   
840030d3  xdc_runtime_System_SupportProxy_Proxy__delegate__S                   
8400f175  xdc_runtime_System_SupportProxy_abort__E                             
8400f235  xdc_runtime_System_SupportProxy_exit__E                              
8400f2f5  xdc_runtime_System_SupportProxy_putch__E                             
8400f3ad  xdc_runtime_System_SupportProxy_ready__E                             
8503c420  xdc_runtime_System_abortFxn__C                                       
8400f465  xdc_runtime_System_abortStd__E                                       
84011c95  xdc_runtime_System_abort__E                                          
840030b9  xdc_runtime_System_aprintf__E                                        
840030b5  xdc_runtime_System_aprintf_va__E                                     
8400f51d  xdc_runtime_System_aprintf_va__F                                     
84003099  xdc_runtime_System_asprintf__E                                       
84003095  xdc_runtime_System_asprintf_va__E                                    
8400f67d  xdc_runtime_System_asprintf_va__F                                    
84011691  xdc_runtime_System_atexit__E                                         
840119d1  xdc_runtime_System_avprintf__E                                       
84011d77  xdc_runtime_System_avsprintf__E                                      
8400aa79  xdc_runtime_System_doPrint__I                                        
8503c424  xdc_runtime_System_exitFxn__C                                        
8400f72d  xdc_runtime_System_exitStd__E                                        
84011d31  xdc_runtime_System_exit__E                                           
8503c428  xdc_runtime_System_extendFxn__C                                      
840105f1  xdc_runtime_System_formatNum__I                                      
8503c42c  xdc_runtime_System_maxAtexitHandlers__C                              
84002f9d  xdc_runtime_System_printfExtend__I                                   
84002f83  xdc_runtime_System_printf__E                                         
84002f7f  xdc_runtime_System_printf_va__E                                      
8400f91d  xdc_runtime_System_printf_va__F                                      
84011869  xdc_runtime_System_processAtExit__E                                  
84011951  xdc_runtime_System_putchar__I                                        
84002f65  xdc_runtime_System_snprintf__E                                       
84002f61  xdc_runtime_System_snprintf_va__E                                    
8400fa5d  xdc_runtime_System_snprintf_va__F                                    
84002f45  xdc_runtime_System_sprintf__E                                        
84002f41  xdc_runtime_System_sprintf_va__E                                     
8400ff0d  xdc_runtime_System_sprintf_va__F                                     
84011a45  xdc_runtime_System_vprintf__E                                        
84011ed9  xdc_runtime_System_vsnprintf__E                                      
84011d8d  xdc_runtime_System_vsprintf__E                                       
84002f3d  xdc_runtime_Text_Module__startupDone__S                              
8503c476  xdc_runtime_Text_charCnt__C                                          
8503997c  xdc_runtime_Text_charTab__A                                          
8503c430  xdc_runtime_Text_charTab__C                                          
84011925  xdc_runtime_Text_cordText__E                                         
8503c478  xdc_runtime_Text_isLoaded__C                                         
8503c434  xdc_runtime_Text_nameEmpty__C                                        
8503c438  xdc_runtime_Text_nameStatic__C                                       
8503c43c  xdc_runtime_Text_nameUnknown__C                                      
8503bb26  xdc_runtime_Text_nodeTab__A                                          
8503c440  xdc_runtime_Text_nodeTab__C                                          
84011769  xdc_runtime_Text_printVisFxn__I                                      
84010ab5  xdc_runtime_Text_putLab__E                                           
8400fcc9  xdc_runtime_Text_putMod__E                                           
8400fafd  xdc_runtime_Text_putSite__E                                          
8503c47a  xdc_runtime_Text_registryModsLastId__C                               
84011d49  xdc_runtime_Text_ropeText__E                                         
8503c47c  xdc_runtime_Text_unnamedModsLastId__C                                
84010d61  xdc_runtime_Text_visitRope2__I                                       
8503c444  xdc_runtime_Text_visitRopeFxn__C                                     
84002f2d  xdc_runtime_Text_visitRope__I                                        
84011325  xdc_runtime_Text_xprintf__I                                          


GLOBAL SYMBOLS: SORTED BY Symbol Address 

address   name                                                                 
-------   ----                                                                 
00000000  _argsize                                                             
00000001  xdc_runtime_Startup__EXECFXN__C                                      
00000001  xdc_runtime_Startup__RESETFXN__C                                     
00000009  ti_sysbios_family_arm_ducati_Core_reset                              
00000040  ti_sysbios_family_arm_ducati_Core_core1WaitFlag                      
00000400  ti_sysbios_family_arm_m3_Hwi_resetVectors                            
000007f0  ti_sysbios_family_arm_ducati_GateDualCore_gateArray                  
00004000  __STACK_SIZE                                                         
40000000  ti_sysbios_hal_unicache_Cache_cache                                  
40000400  ti_sysbios_family_arm_ducati_CTM_ctm                                 
40000800  ti_sysbios_hal_ammu_AMMU_mmu                                         
84000183  lisrEdma3TC7ErrHandler0                                              
84000193  lisrEdma3TC6ErrHandler0                                              
840001a3  lisrEdma3TC5ErrHandler0                                              
840001b3  lisrEdma3TC4ErrHandler0                                              
840001c3  lisrEdma3TC3ErrHandler0                                              
840001d3  lisrEdma3TC2ErrHandler0                                              
840001e3  lisrEdma3TC1ErrHandler0                                              
840001f3  lisrEdma3TC0ErrHandler0                                              
840003e7  lisrEdma3ComplHandler0                                               
8400071d  lisrEdma3CCErrHandler0                                               
84000775  edma3ParamCpy                                                        
8400079b  edma3MemZero                                                         
840007bd  edma3MemCpy                                                          
84000801  EDMA3_RM_waitAndClearTcc                                             
8400084b  EDMA3_RM_unregisterTccCb                                             
840008dd  EDMA3_RM_setPaRAM                                                    
84000b13  EDMA3_RM_setCCRegister                                               
84000b71  EDMA3_RM_registerTccCb                                               
84000cf1  EDMA3_RM_open                                                        
84000faf  EDMA3_RM_mapQdmaChannel                                              
84001081  EDMA3_RM_mapEdmaChannel                                              
84001131  EDMA3_RM_initXbarEventMap                                            
84001165  EDMA3_RM_getPaRAMPhyAddr                                             
840011f9  EDMA3_RM_getPaRAM                                                    
84001293  EDMA3_RM_getInstanceInitCfg                                          
840012fd  EDMA3_RM_getGblConfigParams                                          
84001325  EDMA3_RM_getCCRegister                                               
84001353  EDMA3_RM_getBaseAddress                                              
84001399  EDMA3_RM_freeResource                                                
84001599  EDMA3_RM_freeLogicalChannel                                          
840017e9  EDMA3_RM_freeContiguousResource                                      
8400184b  EDMA3_RM_delete                                                      
84001947  EDMA3_RM_create                                                      
84001ad5  EDMA3_RM_close                                                       
84001bdd  EDMA3_RM_checkAndClearTcc                                            
84001c7d  EDMA3_RM_allocResource                                               
8400216d  EDMA3_RM_allocLogicalChannel                                         
84002b8d  EDMA3_RM_allocContiguousResource                                     
84002ebb  EDMA3_RM_Ioctl                                                       
84002f2d  xdc_runtime_Text_visitRope__I                                        
84002f3d  xdc_runtime_Text_Module__startupDone__S                              
84002f41  xdc_runtime_System_sprintf_va__E                                     
84002f45  xdc_runtime_System_sprintf__E                                        
84002f61  xdc_runtime_System_snprintf_va__E                                    
84002f65  xdc_runtime_System_snprintf__E                                       
84002f7f  xdc_runtime_System_printf_va__E                                      
84002f83  xdc_runtime_System_printf__E                                         
84002f9d  xdc_runtime_System_printfExtend__I                                   
84003095  xdc_runtime_System_asprintf_va__E                                    
84003099  xdc_runtime_System_asprintf__E                                       
840030b5  xdc_runtime_System_aprintf_va__E                                     
840030b9  xdc_runtime_System_aprintf__E                                        
840030d3  xdc_runtime_System_SupportProxy_Proxy__delegate__S                   
840030d7  xdc_runtime_System_SupportProxy_Proxy__abstract__S                   
840030db  xdc_runtime_SysMin_Module__startupDone__F                            
840030db  xdc_runtime_SysMin_Module__startupDone__S                            
840030db  xdc_runtime_System_SupportProxy_Module__startupDone__S               
840030ed  xdc_runtime_System_Module__startupDone__F                            
840030ed  xdc_runtime_System_Module__startupDone__S                            
840030ff  xdc_runtime_System_Module_GateProxy_leave__E                         
84003103  xdc_runtime_System_Module_GateProxy_enter__E                         
84003107  ti_sysbios_gates_GateHwi_Object__delete__S                           
84003121  xdc_runtime_System_Module_GateProxy_delete                           
84003125  ti_sysbios_gates_GateHwi_create                                      
8400314f  xdc_runtime_System_Module_GateProxy_create                           
84003153  xdc_runtime_System_Module_GateProxy_Proxy__delegate__S               
84003157  xdc_runtime_System_Module_GateProxy_Proxy__abstract__S               
8400315b  ti_sysbios_gates_GateHwi_Params__init__S                             
8400315b  xdc_runtime_Main_Module_GateProxy_Params__init__S                    
8400315b  xdc_runtime_System_Module_GateProxy_Params__init__S                  
84003163  ti_sysbios_gates_GateHwi_Module__startupDone__S                      
84003163  xdc_runtime_Main_Module_GateProxy_Module__startupDone__S             
84003163  xdc_runtime_System_Module_GateProxy_Module__startupDone__S           
84003167  ti_sysbios_gates_GateHwi_Handle__label__S                            
84003167  xdc_runtime_Main_Module_GateProxy_Handle__label__S                   
84003167  xdc_runtime_System_Module_GateProxy_Handle__label__S                 
84003181  xdc_runtime_SysMin_output__I                                         
840031a3  xdc_runtime_Startup_exec__I                                          
840031b5  xdc_runtime_Startup_Module__startupDone__S                           
840031b9  xdc_runtime_Registry_Module__startupDone__S                          
840031bd  xdc_runtime_Memory_Module__startupDone__S                            
840031c1  ti_sysbios_BIOS_nullFunc__I                                          
840031c3  ti_sysbios_BIOS_RtsGateProxy_leave__E                                
840031c7  ti_sysbios_BIOS_rtsUnlock__I                                         
840031db  ti_sysbios_BIOS_RtsGateProxy_enter__E                                
840031df  ti_sysbios_BIOS_rtsLock__I                                           
840031f9  ti_sysbios_BIOS_atExitFunc__I                                        
84003221  ti_sysbios_BIOS_removeRTSLock__I                                     
8400323b  ti_sysbios_BIOS_errorRaiseHook__I                                    
84003259  ti_sysbios_knl_Clock_doTick__I                                       
8400327f  ti_sysbios_BIOS_exitFunc__I                                          
84003295  ti_sysbios_BIOS_registerRTSLock__I                                   
840032ad  ti_sysbios_BIOS_startFunc__I                                         
840032d7  ti_sysbios_heaps_HeapMem_Handle__label__S                            
840032d7  xdc_runtime_Memory_HeapProxy_Handle__label__S                        
840032f1  ti_sysbios_heaps_HeapMem_Object__delete__S                           
8400330b  ti_sysbios_heaps_HeapMem_Object__create__S                           
84003335  ti_sysbios_BIOS_RtsGateProxy_Handle__label__S                        
84003335  ti_sysbios_gates_GateMutex_Handle__label__S                          
84003335  ti_sysbios_heaps_HeapMem_Module_GateProxy_Handle__label__S           
8400334f  ti_sysbios_gates_GateMutex_Object__delete__S                         
84003369  ti_sysbios_gates_GateMutex_Object__create__S                         
84003393  ti_sysbios_gates_GateHwi_Object__create__S                           
840033c1  ti_sysbios_family_arm_ducati_GateDualCore_Handle__label__S           
840033c1  ti_sysbios_hal_unicache_Cache_Module_GateProxy_Handle__label__S      
840033e1  ti_sysbios_family_arm_ducati_GateDualCore_Object__delete__S          
840033fd  ti_sysbios_family_arm_ducati_GateDualCore_Object__create__S          
8400343d  xdc_runtime_Memory_HeapProxy_isBlocking__E                           
84003447  xdc_runtime_Memory_HeapProxy_getStats__E                             
84003455  xdc_runtime_Memory_HeapProxy_free__E                                 
84003465  xdc_runtime_Memory_HeapProxy_delete                                  
84003469  ti_sysbios_heaps_HeapMem_create                                      
84003493  xdc_runtime_Memory_HeapProxy_create                                  
84003497  xdc_runtime_Memory_HeapProxy_alloc__E                                
840034a1  xdc_runtime_Memory_HeapProxy_Proxy__delegate__S                      
840034a5  xdc_runtime_Memory_HeapProxy_Proxy__abstract__S                      
840034a9  ti_sysbios_heaps_HeapMem_Params__init__S                             
840034a9  xdc_runtime_Memory_HeapProxy_Params__init__S                         
840034b1  ti_sysbios_heaps_HeapMem_Module__startupDone__S                      
840034b1  xdc_runtime_Memory_HeapProxy_Module__startupDone__S                  
840034b5  xdc_runtime_Main_Module__startupDone__S                              
840034b9  xdc_runtime_Main_Module_GateProxy_leave__E                           
840034bd  xdc_runtime_Main_Module_GateProxy_enter__E                           
840034c1  xdc_runtime_Main_Module_GateProxy_delete                             
840034c5  xdc_runtime_Main_Module_GateProxy_create                             
840034cd  xdc_runtime_Main_Module_GateProxy_Proxy__delegate__S                 
840034d1  xdc_runtime_Main_Module_GateProxy_Proxy__abstract__S                 
840034d5  xdc_runtime_Log_Module__startupDone__S                               
840034d9  xdc_runtime_IHeap_delete                                             
840034e7  xdc_runtime_IHeap_create                                             
840034f9  xdc_runtime_IGateProvider_delete                                     
8400350d  xdc_runtime_IGateProvider_create                                     
8400351f  xdc_runtime_Gate_Module__startupDone__S                              
84003523  xdc_runtime_Error_Module__startupDone__S                             
84003527  xdc_runtime_Diags_Module__startupDone__S                             
8400352b  xdc_runtime_Defaults_Module__startupDone__S                          
8400352f  xdc_runtime_Core_Module__startupDone__S                              
84003533  xdc_runtime_Assert_Module__startupDone__S                            
84003541  ti_sysbios_knl_Task_destruct                                         
84003559  ti_sysbios_knl_Task_Object__delete__S                                
84003571  ti_sysbios_knl_Task_delete                                           
8400357d  ti_sysbios_knl_Task_create                                           
840035cd  ti_sysbios_knl_Task_construct                                        
8400360f  ti_sysbios_knl_Task_SupportProxy_Proxy__delegate__S                  
84003613  ti_sysbios_knl_Task_SupportProxy_Proxy__abstract__S                  
84003617  ti_sysbios_family_arm_m3_TaskSupport_Module__startupDone__S          
84003617  ti_sysbios_knl_Task_SupportProxy_Module__startupDone__S              
8400361b  ti_sysbios_knl_Task_Params__init__S                                  
84003623  ti_sysbios_knl_Task_Object__next__S                                  
84003633  ti_sysbios_knl_Task_Object__get__S                                   
8400363f  ti_sysbios_knl_Task_Object__first__S                                 
84003655  ti_sysbios_knl_Task_Object__create__S                                
840036a3  ti_sysbios_knl_Task_Module__startupDone__F                           
840036a3  ti_sysbios_knl_Task_Module__startupDone__S                           
840036b5  ti_sysbios_knl_Task_Handle__label__S                                 
840036cf  ti_sysbios_knl_Swi_destruct                                          
840036e9  ti_sysbios_knl_Swi_Object__delete__S                                 
84003701  ti_sysbios_knl_Swi_delete                                            
84003705  ti_sysbios_knl_Swi_create                                            
8400374d  ti_sysbios_knl_Swi_construct                                         
8400378f  ti_sysbios_knl_Swi_Params__init__S                                   
84003797  ti_sysbios_knl_Swi_Object__next__S                                   
840037b1  ti_sysbios_knl_Swi_Object__get__S                                    
840037bf  ti_sysbios_knl_Swi_Object__first__S                                  
840037d1  ti_sysbios_knl_Swi_Object__create__S                                 
8400381f  ti_sysbios_knl_Swi_Module__startupDone__F                            
8400381f  ti_sysbios_knl_Swi_Module__startupDone__S                            
84003839  ti_sysbios_knl_Swi_Handle__label__S                                  
84003853  ti_sysbios_knl_Semaphore_destruct                                    
84003869  ti_sysbios_knl_Semaphore_Object__delete__S                           
84003883  ti_sysbios_knl_Semaphore_delete                                      
84003887  ti_sysbios_knl_Semaphore_create                                      
840038b5  ti_sysbios_knl_Semaphore_construct                                   
840038df  ti_sysbios_knl_Semaphore_Params__init__S                             
840038e7  ti_sysbios_knl_Semaphore_Object__next__S                             
840038f7  ti_sysbios_knl_Semaphore_Object__get__S                              
84003907  ti_sysbios_knl_Semaphore_Object__first__S                            
84003921  ti_sysbios_knl_Semaphore_Object__create__S                           
84003953  ti_sysbios_knl_Semaphore_Module__startupDone__S                      
84003957  ti_sysbios_knl_Semaphore_Handle__label__S                            
84003971  ti_sysbios_knl_Queue_destruct                                        
8400398d  ti_sysbios_knl_Queue_Object__delete__S                               
840039a7  ti_sysbios_knl_Queue_delete                                          
840039b5  ti_sysbios_knl_Queue_create                                          
840039df  ti_sysbios_knl_Queue_construct                                       
84003a05  ti_sysbios_knl_Queue_Params__init__S                                 
84003a0d  ti_sysbios_knl_Queue_Object__next__S                                 
84003a1d  ti_sysbios_knl_Queue_Object__get__S                                  
84003a29  ti_sysbios_knl_Queue_Object__first__S                                
84003a37  ti_sysbios_knl_Queue_Object__create__S                               
84003a61  ti_sysbios_knl_Queue_Module__startupDone__S                          
84003a65  ti_sysbios_knl_Queue_Handle__label__S                                
84003a7f  ti_sysbios_knl_Intrinsics_SupportProxy_Proxy__delegate__S            
84003a83  ti_sysbios_knl_Intrinsics_SupportProxy_Proxy__abstract__S            
84003a87  ti_sysbios_family_arm_m3_IntrinsicsSupport_Module__startupDone__S    
84003a87  ti_sysbios_knl_Intrinsics_SupportProxy_Module__startupDone__S        
84003a8b  ti_sysbios_knl_Intrinsics_Module__startupDone__S                     
84003a8f  ti_sysbios_knl_Idle_Module__startupDone__S                           
84003a9d  ti_sysbios_knl_Clock_destruct                                        
84003ab9  ti_sysbios_knl_Clock_Object__delete__S                               
84003ad3  ti_sysbios_knl_Clock_delete                                          
84003ad7  ti_sysbios_knl_Clock_create                                          
84003b0d  ti_sysbios_knl_Clock_construct                                       
84003b39  ti_sysbios_knl_Clock_TimerProxy_trigger__E                           
84003b3d  ti_sysbios_knl_Clock_TimerProxy_stop__E                              
84003b41  ti_sysbios_knl_Clock_TimerProxy_start__E                             
84003b45  ti_sysbios_knl_Clock_TimerProxy_setPeriod__E                         
84003b49  ti_sysbios_knl_Clock_TimerProxy_setPeriodMicroSecs__E                
84003b4d  ti_sysbios_knl_Clock_TimerProxy_setNextTick__E                       
84003b51  ti_sysbios_knl_Clock_TimerProxy_setFunc__E                           
84003b55  ti_sysbios_knl_Clock_TimerProxy_getPeriod__E                         
84003b59  ti_sysbios_knl_Clock_TimerProxy_getMaxTicks__E                       
84003b5d  ti_sysbios_knl_Clock_TimerProxy_getFunc__E                           
84003b61  ti_sysbios_knl_Clock_TimerProxy_getFreq__E                           
84003b65  ti_sysbios_knl_Clock_TimerProxy_getExpiredTicks__E                   
84003b69  ti_sysbios_knl_Clock_TimerProxy_getExpiredCounts__E                  
84003b71  ti_sysbios_knl_Clock_TimerProxy_getCurrentTick__E                    
84003b79  ti_sysbios_knl_Clock_TimerProxy_getCount__E                          
84003b7d  ti_sysbios_family_arm_ducati_Timer_Object__delete__S                 
84003b95  ti_sysbios_knl_Clock_TimerProxy_delete                               
84003b99  ti_sysbios_family_arm_ducati_Timer_create                            
84003be5  ti_sysbios_knl_Clock_TimerProxy_create                               
84003be9  ti_sysbios_knl_Clock_TimerProxy_Proxy__delegate__S                   
84003bed  ti_sysbios_knl_Clock_TimerProxy_Proxy__abstract__S                   
84003bf1  ti_sysbios_family_arm_ducati_Timer_Params__init__S                   
84003bf1  ti_sysbios_knl_Clock_TimerProxy_Params__init__S                      
84003c01  ti_sysbios_family_arm_ducati_Timer_Module__startupDone__F            
84003c01  ti_sysbios_family_arm_ducati_Timer_Module__startupDone__S            
84003c01  ti_sysbios_knl_Clock_TimerProxy_Module__startupDone__S               
84003c13  ti_sysbios_family_arm_ducati_Timer_Handle__label__S                  
84003c13  ti_sysbios_knl_Clock_TimerProxy_Handle__label__S                     
84003c2d  ti_sysbios_knl_Clock_Params__init__S                                 
84003c35  ti_sysbios_knl_Clock_Object__next__S                                 
84003c45  ti_sysbios_knl_Clock_Object__get__S                                  
84003c51  ti_sysbios_knl_Clock_Object__first__S                                
84003c5f  ti_sysbios_knl_Clock_Object__create__S                               
84003c99  ti_sysbios_knl_Clock_Module__startupDone__F                          
84003c99  ti_sysbios_knl_Clock_Module__startupDone__S                          
84003cab  ti_sysbios_knl_Clock_Handle__label__S                                
84003cc5  ti_sysbios_heaps_HeapMem_destruct                                    
84003cdb  ti_sysbios_heaps_HeapMem_delete                                      
84003cdf  ti_sysbios_heaps_HeapMem_construct                                   
84003d05  ti_sysbios_heaps_HeapMem_Object__next__S                             
84003d15  ti_sysbios_heaps_HeapMem_Object__get__S                              
84003d2d  ti_sysbios_heaps_HeapMem_Object__first__S                            
84003d3b  ti_sysbios_heaps_HeapMem_Module_GateProxy_leave__E                   
84003d3f  ti_sysbios_heaps_HeapMem_Module_GateProxy_enter__E                   
84003d43  ti_sysbios_heaps_HeapMem_Module_GateProxy_delete                     
84003d47  ti_sysbios_gates_GateMutex_create                                    
84003d71  ti_sysbios_heaps_HeapMem_Module_GateProxy_create                     
84003d75  ti_sysbios_heaps_HeapMem_Module_GateProxy_Proxy__delegate__S         
84003d79  ti_sysbios_heaps_HeapMem_Module_GateProxy_Proxy__abstract__S         
84003d7d  ti_sysbios_BIOS_RtsGateProxy_Params__init__S                         
84003d7d  ti_sysbios_gates_GateMutex_Params__init__S                           
84003d7d  ti_sysbios_heaps_HeapMem_Module_GateProxy_Params__init__S            
84003d85  ti_sysbios_BIOS_RtsGateProxy_Module__startupDone__S                  
84003d85  ti_sysbios_gates_GateMutex_Module__startupDone__S                    
84003d85  ti_sysbios_heaps_HeapMem_Module_GateProxy_Module__startupDone__S     
84003d89  ti_sysbios_hal_Cache_CacheProxy_Module__startupDone__S               
84003d89  ti_sysbios_hal_unicache_Cache_Module__startupDone__S                 
84003d8d  ti_sysbios_hal_unicache_Cache_Module_GateProxy_leave__E              
84003d91  ti_sysbios_hal_unicache_Cache_Module_GateProxy_enter__E              
84003d95  ti_sysbios_hal_unicache_Cache_Module_GateProxy_delete                
84003da5  ti_sysbios_family_arm_ducati_GateDualCore_create                     
84003de5  ti_sysbios_hal_unicache_Cache_Module_GateProxy_create                
84003de9  ti_sysbios_hal_unicache_Cache_Module_GateProxy_Proxy__delegate__S    
84003ded  ti_sysbios_hal_unicache_Cache_Module_GateProxy_Proxy__abstract__S    
84003df1  ti_sysbios_family_arm_ducati_GateDualCore_Params__init__S            
84003df1  ti_sysbios_hal_unicache_Cache_Module_GateProxy_Params__init__S       
84003df9  ti_sysbios_family_arm_ducati_GateDualCore_Module__startupDone__F     
84003df9  ti_sysbios_family_arm_ducati_GateDualCore_Module__startupDone__S     
84003df9  ti_sysbios_hal_unicache_Cache_Module_GateProxy_Module__startupDone__S
84003e0b  ti_sysbios_hal_ammu_AMMU_Module__startupDone__S                      
84003e0f  ti_sysbios_hal_Hwi_destruct                                          
84003e23  ti_sysbios_hal_Hwi_Object__delete__S                                 
84003e3b  ti_sysbios_hal_Hwi_delete                                            
84003e49  ti_sysbios_hal_Hwi_create                                            
84003e95  ti_sysbios_hal_Hwi_construct                                         
84003edd  ti_sysbios_hal_Hwi_Params__init__S                                   
84003ee9  ti_sysbios_hal_Hwi_Object__next__S                                   
84003efd  ti_sysbios_hal_Hwi_Object__get__S                                    
84003f09  ti_sysbios_hal_Hwi_Object__first__S                                  
84003f21  ti_sysbios_hal_Hwi_Object__create__S                                 
84003f73  ti_sysbios_hal_Hwi_Module__startupDone__F                            
84003f73  ti_sysbios_hal_Hwi_Module__startupDone__S                            
84003f85  ti_sysbios_hal_Hwi_HwiProxy_setHookContext__E                        
84003f89  ti_sysbios_hal_Hwi_HwiProxy_setFunc__E                               
84003f8d  ti_sysbios_hal_Hwi_HwiProxy_getIrp__E                                
84003f91  ti_sysbios_hal_Hwi_HwiProxy_getHookContext__E                        
84003f95  ti_sysbios_hal_Hwi_HwiProxy_getFunc__E                               
84003f99  ti_sysbios_family_arm_m3_Hwi_Object__delete__S                       
84003fb1  ti_sysbios_hal_Hwi_HwiProxy_delete                                   
84003fb9  ti_sysbios_family_arm_m3_Hwi_create                                  
84004005  ti_sysbios_hal_Hwi_HwiProxy_create                                   
8400400d  ti_sysbios_hal_Hwi_HwiProxy_Proxy__delegate__S                       
84004011  ti_sysbios_hal_Hwi_HwiProxy_Proxy__abstract__S                       
84004019  ti_sysbios_family_arm_m3_Hwi_Params__init__S                         
84004019  ti_sysbios_hal_Hwi_HwiProxy_Params__init__S                          
84004021  ti_sysbios_family_arm_m3_Hwi_Module__startupDone__F                  
84004021  ti_sysbios_family_arm_m3_Hwi_Module__startupDone__S                  
84004021  ti_sysbios_hal_Hwi_HwiProxy_Module__startupDone__S                   
84004039  ti_sysbios_family_arm_m3_Hwi_Handle__label__S                        
84004039  ti_sysbios_hal_Hwi_HwiProxy_Handle__label__S                         
84004053  ti_sysbios_hal_Hwi_Handle__label__S                                  
8400406d  ti_sysbios_hal_Cache_Module__startupDone__S                          
84004071  ti_sysbios_hal_Cache_CacheProxy_Proxy__delegate__S                   
84004079  ti_sysbios_hal_Cache_CacheProxy_Proxy__abstract__S                   
84004081  ti_sysbios_gates_GateMutex_destruct                                  
84004097  ti_sysbios_gates_GateMutex_delete                                    
840040a1  ti_sysbios_gates_GateMutex_construct                                 
840040c7  ti_sysbios_gates_GateMutex_Object__next__S                           
840040d7  ti_sysbios_gates_GateMutex_Object__get__S                            
840040ed  ti_sysbios_gates_GateMutex_Object__first__S                          
840040fb  ti_sysbios_gates_GateHwi_destruct                                    
84004111  ti_sysbios_gates_GateHwi_delete                                      
8400411d  ti_sysbios_gates_GateHwi_construct                                   
84004143  ti_sysbios_gates_GateHwi_Object__next__S                             
84004153  ti_sysbios_gates_GateHwi_Object__get__S                              
8400415d  ti_sysbios_gates_GateHwi_Object__first__S                            
8400416b  ti_sysbios_family_shared_vayu_IntXbar_Module__startupDone__S         
8400416f  ti_sysbios_family_arm_m3_Hwi_destruct                                
84004183  ti_sysbios_family_arm_m3_Hwi_delete                                  
84004187  ti_sysbios_family_arm_m3_Hwi_construct                               
840041cf  ti_sysbios_family_arm_m3_Hwi_Object__next__S                         
840041e5  ti_sysbios_family_arm_m3_Hwi_Object__get__S                          
840041f9  ti_sysbios_family_arm_m3_Hwi_Object__first__S                        
84004207  ti_sysbios_family_arm_m3_Hwi_Object__create__S                       
84004259  ti_sysbios_family_arm_ducati_Timer_destruct                          
8400426d  ti_sysbios_family_arm_ducati_Timer_delete                            
8400427d  ti_sysbios_family_arm_ducati_Timer_construct                         
840042c5  ti_sysbios_family_arm_ducati_Timer_Object__next__S                   
840042d5  ti_sysbios_family_arm_ducati_Timer_Object__get__S                    
840042e1  ti_sysbios_family_arm_ducati_Timer_Object__first__S                  
840042f5  ti_sysbios_family_arm_ducati_Timer_Object__create__S                 
84004347  ti_sysbios_family_arm_ducati_GateDualCore_destruct                   
8400435b  ti_sysbios_family_arm_ducati_GateDualCore_delete                     
8400436d  ti_sysbios_family_arm_ducati_GateDualCore_construct                  
840043ab  ti_sysbios_family_arm_ducati_GateDualCore_Object__next__S            
840043bb  ti_sysbios_family_arm_ducati_GateDualCore_Object__get__S             
840043c5  ti_sysbios_family_arm_ducati_GateDualCore_Object__first__S           
840043dd  ti_sysbios_family_arm_ducati_Core_Module__startupDone__F             
840043dd  ti_sysbios_family_arm_ducati_Core_Module__startupDone__S             
840043ef  ti_sysbios_family_arm_ducati_CTM_Module__startupDone__S              
840043f3  ti_sysbios_BIOS_RtsGateProxy_delete                                  
840043f7  ti_sysbios_BIOS_RtsGateProxy_create                                  
840043fb  ti_sysbios_BIOS_RtsGateProxy_Proxy__delegate__S                      
840043ff  ti_sysbios_BIOS_RtsGateProxy_Proxy__abstract__S                      
84004403  ti_sysbios_BIOS_Module__startupDone__S                               
8400440d  malloc                                                               
84004441  free                                                                 
8400445d  realloc                                                              
840044a1  memalign                                                             
840044ed  calloc                                                               
8400453d  EDMA3_DRV_setTransferParams                                          
840045e3  EDMA3_DRV_setSrcParams                                               
840046e9  EDMA3_DRV_setSrcIndex                                                
84004777  EDMA3_DRV_setOptField                                                
8400488d  EDMA3_DRV_setDestParams                                              
840049a9  EDMA3_DRV_setDestIndex                                               
84004a37  EDMA3_DRV_disableTransfer                                            
84004cd7  EDMA3_DRV_freeChannel                                                
84004edd  EDMA3_DRV_requestChannel                                             
84005491  EDMA3_DRV_getVersionStr                                              
84005495  EDMA3_DRV_getVersion                                                 
8400549d  EDMA3_DRV_getOptField                                                
84005553  EDMA3_DRV_getAllocatedPARAMId                                        
8400557f  EDMA3_DRV_enableTransfer                                             
8400568b  EDMA3_DRV_disableLogicalChannel                                      
84005735  EDMA3_DRV_clearErrorBits                                             
84005ffd  __TI_printfi                                                         
840068e7  __aeabi_idiv0                                                        
840068e9  EDMA3_DRV_waitAndClearTcc                                            
84006935  EDMA3_DRV_unregisterTccCb                                            
84006985  EDMA3_DRV_unlinkChannel                                              
840069df  EDMA3_DRV_unchainChannel                                             
84006a31  EDMA3_DRV_setTcErrorInt                                              
84006ac1  EDMA3_DRV_setQdmaTrigWord                                            
84006b21  EDMA3_DRV_setPaRAMField                                              
84006c6d  EDMA3_DRV_setPaRAMEntry                                              
84006cc5  EDMA3_DRV_setPaRAM                                                   
84006d21  EDMA3_DRV_setEvtQPriority                                            
84006d9f  EDMA3_DRV_setCCRegister                                              
84006df9  EDMA3_DRV_registerTccCb                                              
84006e71  EDMA3_DRV_mapTccLinkCh                                               
84006ef9  EDMA3_DRV_mapChToEvtQ                                                
84006fd1  EDMA3_DRV_linkChannel                                                
84007089  EDMA3_DRV_getPaRAMPhyAddr                                            
840070f5  EDMA3_DRV_getPaRAMField                                              
840071e1  EDMA3_DRV_getPaRAMEntry                                              
84007245  EDMA3_DRV_getPaRAM                                                   
840072a9  EDMA3_DRV_getMapChToEvtQ                                             
84007311  EDMA3_DRV_getInstHandle                                              
8400735b  EDMA3_DRV_getChannelStatus                                           
8400745b  EDMA3_DRV_getCCRegister                                              
8400748b  EDMA3_DRV_checkAndClearTcc                                           
840074e3  EDMA3_DRV_chainChannel                                               
840075c5  EDMA3_DRV_Ioctl                                                      
84007629  main                                                                 
8400763d  edma3MemToMemCpytest                                                 
84007c3b  bypassCore                                                           
84007d5d  echo                                                                 
8400823d  qdma_test_with_link                                                  
84008aaf  EDMA3_DRV_open                                                       
84008bab  EDMA3_DRV_initXbarEventMap                                           
84008bf9  EDMA3_DRV_delete                                                     
84008ce1  EDMA3_DRV_create                                                     
84008df1  EDMA3_DRV_close                                                      
84008e79  edma3_test_user_req_paRAMId                                          
8400916b  edma3_test_poll_mode                                                 
84009333  xdc_runtime_System_Module_startup__E                                 
84009339  ti_sysbios_family_arm_m3_Hwi_excDumpRegs__I                          
84009769  process_ping_pong_buffer                                             
840097ad  edma3_test_ping_pong_mode                                            
84009b91  edma3_test_with_link                                                 
84009f91  edma3_test_with_chaining                                             
8400a34d  qdma_test                                                            
8400a701  edma3_test                                                           
8400aa79  xdc_runtime_System_doPrint__I                                        
8400adcd  HOSTwrite                                                            
8400ae19  HOSTunlink                                                           
8400ae51  HOSTtime64                                                           
8400ae9f  HOSTtime                                                             
8400aed9  HOSTrename                                                           
8400af37  HOSTread                                                             
8400af83  HOSTopen                                                             
8400afd5  HOSTlseek                                                            
8400b031  HOSTgetenv                                                           
8400b06f  HOSTclose                                                            
8400b0a7  HOSTclock                                                            
8400b0f1  ti_sysbios_knl_Semaphore_pend__E                                     
8400b405  write                                                                
8400b495  unlink                                                               
8400b4b9  rename                                                               
8400b4f7  remove_device                                                        
8400b51f  read                                                                 
8400b543  open                                                                 
8400b5f1  lseek                                                                
8400b615  close                                                                
8400b665  add_device                                                           
8400b711  unregisterEdma3Interrupts                                            
8400b751  sampleMapXbarEvtToChan                                               
8400b779  sampleInitXbarEvt                                                    
8400b79d  sampleConfigScr                                                      
8400b7dd  registerEdma3Interrupts                                              
8400b967  Edma3MemProtectionHandler                                            
8400b9d9  ti_sysbios_heaps_HeapMem_freeUnprotected__E                          
8400bc29  ti_sysbios_knl_Task_Instance_finalize__E                             
8400be4d  remove                                                               
8400be51  ti_sysbios_family_arm_m3_Hwi_excHandlerMax__I                        
8400c04d  ti_sysbios_hal_Cache_CacheProxy_inv__E                               
8400c051  ti_sysbios_heaps_HeapMem_allocUnprotected__E                         
8400c24d  __aeabi_uldivmod                                                     
8400c441  ti_sysbios_hal_unicache_Cache_startup__I                             
8400c6e1  __TI_cleanup                                                         
8400c70d  freopen                                                              
8400c737  fopen                                                                
8400c7dd  ti_sysbios_hal_Cache_CacheProxy_wb__E                                
8400c7e1  ti_sysbios_family_arm_ducati_Timer_Instance_init__E                  
8400c9a5  ti_sysbios_hal_Hwi_HwiProxy_disableInterrupt__E                      
8400c9a9  ti_sysbios_knl_Task_Instance_init__E                                 
8400cb69  __aeabi_dsub                                                         
8400cb73  __aeabi_dadd                                                         
8400cd21  ti_sysbios_knl_Task_Module_startup__E                                
8400cebd  ti_sysbios_hal_Hwi_HwiProxy_enableInterrupt__E                       
8400cec1  ti_sysbios_family_arm_m3_Hwi_excBusFault__I                          
8400d035  edma3OsSemTake                                                       
8400d04f  edma3OsSemGive                                                       
8400d061  edma3OsSemDelete                                                     
8400d077  edma3OsSemCreate                                                     
8400d097  edma3OsProtectExit                                                   
8400d0ef  edma3OsProtectEntry                                                  
8400d151  Edma3_CacheInvalidate                                                
8400d16d  Edma3_CacheFlush                                                     
8400d199  ti_sysbios_family_arm_m3_Hwi_excUsageFault__I                        
8400d2fd  ti_sysbios_hal_Hwi_HwiProxy_startup__E                               
8400d301  ti_sysbios_hal_unicache_Cache_inv__E                                 
8400d451  ti_sysbios_family_shared_vayu_IntXbar_connect__E                     
8400d59d  ti_sysbios_hal_Hwi_HwiProxy_switchFromBootStack__E                   
8400d5a1  ti_sysbios_family_arm_m3_Hwi_excMemFault__I                          
8400d6e9  ti_sysbios_knl_Semaphore_post__E                                     
8400d829  ti_sysbios_heaps_HeapMem_Instance_init__E                            
8400d965  ti_sysbios_heaps_HeapMem_Module_GateProxy_query__E                   
8400d969  ti_sysbios_knl_Clock_workFunc__E                                     
8400daa5  ti_sysbios_knl_Task_SupportProxy_getStackAlignment__E                
8400daa9  ti_sysbios_family_arm_m3_Hwi_dispatchC__I                            
8400dbe1  __aeabi_ddiv                                                         
8400dd19  fputs                                                                
8400de25  puts                                                                 
8400de4d  xdc_runtime_Error_policyDefault__E                                   
8400df7d  ti_sysbios_knl_Task_SupportProxy_start__E                            
8400df81  ti_sysbios_hal_unicache_Cache_wbInv__E                               
8400e0a9  ti_sysbios_hal_unicache_Cache_wb__E                                  
8400e1d1  ti_sysbios_knl_Clock_Instance_init__E                                
8400e2ed  ti_sysbios_knl_Task_SupportProxy_swap__E                             
8400e2f1  ti_sysbios_knl_Swi_run__I                                            
8400e40d  edma3init                                                            
8400e4c5  edma3deinit                                                          
8400e50d  __aeabi_dmul                                                         
8400e609  xdc_runtime_Startup_startMods__I                                     
8400e701  xdc_runtime_Core_createObject__I                                     
8400e7e9  setvbuf                                                              
8400e8c5  edma3_misc_test                                                      
8400e995  ldexp                                                                
8400e995  ldexpl                                                               
8400e995  scalbn                                                               
8400e995  scalbnl                                                              
8400ea65  xdc_runtime_Error_getCode__E                                         
8400ea69  ti_sysbios_family_arm_ducati_GateDualCore_enter__E                   
8400eb39  ti_sysbios_family_arm_m3_Hwi_Module_startup__E                       
8400ec09  ti_sysbios_family_arm_m3_Hwi_dispatch__I                             
8400ecb9  ti_sysbios_family_arm_m3_Hwi_interruptsAreDisabledButShouldNotBe     
8400ecd5  xdc_runtime_Core_constructObject__I                                  
8400eda1  __TI_doflush                                                         
8400eded  fflush                                                               
8400ee69  ti_sysbios_knl_Swi_Instance_init__E                                  
8400ef2d  xdc_runtime_Error_getSite__E                                         
8400ef31  ti_sysbios_knl_Task_schedule__I                                      
8400eff5  xdc_runtime_Startup_reset__I                                         
8400eff9  ti_sysbios_knl_Task_exit__E                                          
8400f0b9  ti_sysbios_family_arm_m3_Hwi_excDebugMon__I                          
8400f175  xdc_runtime_System_SupportProxy_abort__E                             
8400f179  ti_sysbios_family_arm_m3_Hwi_excHardFault__I                         
8400f235  xdc_runtime_System_SupportProxy_exit__E                              
8400f239  ti_sysbios_knl_Task_startCore__E                                     
8400f2f5  xdc_runtime_System_SupportProxy_putch__E                             
8400f2f9  ti_sysbios_family_arm_ducati_Timer_startup__E                        
8400f3ad  xdc_runtime_System_SupportProxy_ready__E                             
8400f3b1  ti_sysbios_family_shared_vayu_IntXbar_initXbarRegs__I                
8400f465  xdc_runtime_System_abortStd__E                                       
8400f469  ti_sysbios_gates_GateMutex_enter__E                                  
8400f51d  xdc_runtime_System_aprintf_va__F                                     
8400f521  ti_sysbios_knl_Task_postInit__I                                      
8400f5d1  __TI_wrt_ok                                                          
8400f633  __TI_rd_ok                                                           
8400f67d  xdc_runtime_System_asprintf_va__F                                    
8400f681  ti_sysbios_knl_Swi_post__E                                           
8400f72d  xdc_runtime_System_exitStd__E                                        
8400f731  ti_sysbios_knl_Task_blockI__E                                        
8400f7d9  ti_sysbios_knl_Clock_Instance_finalize__E                            
8400f87d  __TI_auto_init                                                       
8400f91d  xdc_runtime_System_printf_va__F                                      
8400f921  ti_sysbios_family_arm_ducati_Timer_trigger__E                        
8400f9c1  __aeabi_memcpy                                                       
8400f9c1  __aeabi_memcpy4                                                      
8400f9c1  __aeabi_memcpy8                                                      
8400f9c1  memcpy                                                               
8400fa5d  xdc_runtime_System_snprintf_va__F                                    
8400fa61  ti_sysbios_knl_Semaphore_Instance_init__E                            
8400fafd  xdc_runtime_Text_putSite__E                                          
8400fb99  __TI_closefile                                                       
8400fbff  fclose                                                               
8400fc31  fputc                                                                
8400fc31  putc                                                                 
8400fcb5  putchar                                                              
8400fcc9  xdc_runtime_Text_putMod__E                                           
8400fd61  ti_sysbios_family_arm_ducati_GateDualCore_Instance_init__E           
8400fdf1  ti_sysbios_knl_Task_unblockI__E                                      
8400fe81  ti_sysbios_family_arm_m3_Hwi_Instance_init__E                        
8400ff0d  xdc_runtime_System_sprintf_va__F                                     
8400ff11  ti_sysbios_family_arm_ducati_Timer_setPeriod__E                      
8400ff99  ti_sysbios_family_arm_m3_Hwi_initNVIC__E                             
84010021  __aeabi_cdcmpeq                                                      
84010021  __aeabi_cdcmple                                                      
840100a7  __aeabi_cdrcmple                                                     
84010131  ti_sysbios_family_arm_m3_Hwi_postInit__I                             
840101b9  ti_sysbios_family_shared_vayu_IntXbar_initIntXbar__I                 
84010239  ti_sysbios_family_arm_ducati_GateDualCore_Module_startup__E          
840102b9  ti_sysbios_family_arm_ducati_Timer_getExpiredCounts__E               
84010335  __aeabi_memclr                                                       
84010335  __aeabi_memclr4                                                      
84010335  __aeabi_memclr8                                                      
84010337  __aeabi_memset                                                       
84010337  __aeabi_memset4                                                      
84010337  __aeabi_memset8                                                      
8401033d  memset                                                               
840103b1  ti_sysbios_family_arm_ducati_Timer_start__E                          
84010429  ti_sysbios_knl_Clock_start__E                                        
840104a5  printf                                                               
84010511  ti_sysbios_family_arm_ducati_Timer_setPeriodMicroSecs__E             
84010581  xdc_runtime_Error_print__E                                           
840105f1  xdc_runtime_System_formatNum__I                                      
84010661  ti_sysbios_knl_Swi_restoreHwi__E                                     
840106cd  xdc_runtime_Memory_alloc__E                                          
84010739  __TI_writemsg                                                        
84010767  C$$IO$$                                                              
8401076b  __TI_readmsg                                                         
840107a1  ti_sysbios_family_arm_ducati_Timer_Module_startup__E                 
84010809  xdc_runtime_Core_deleteObject__I                                     
84010871  fseek                                                                
840108d5  callback2                                                            
840108fd  callback1                                                            
84010939  ti_sysbios_family_arm_ducati_Timer_initDevice__I                     
84010999  ti_sysbios_knl_Clock_logTick__E                                      
840109f9  frexp                                                                
840109f9  frexpl                                                               
84010a59  ti_sysbios_knl_Swi_schedule__I                                       
84010ab5  xdc_runtime_Text_putLab__E                                           
84010b11  ti_sysbios_heaps_HeapMem_alloc__E                                    
84010b69  isGblConfigRequired                                                  
84010b6d  getGlobalAddr                                                        
84010b6f  determineProcId                                                      
84010bbd  C$$EXIT                                                              
84010bc1  abort                                                                
84010bc9  exit                                                                 
84010c11  ltoa                                                                 
84010c69  ti_sysbios_knl_Swi_Instance_finalize__E                              
84010cbd  xdc_runtime_Assert_raise__I                                          
84010d11  xdc_runtime_Startup_exec__E                                          
84010d61  xdc_runtime_Text_visitRope2__I                                       
84010db1  atoi                                                                 
84010dfd  copy_in                                                              
84010e49  ti_sysbios_family_arm_ducati_Timer_Instance_finalize__E              
84010e95  ti_sysbios_family_arm_m3_TaskSupport_buildTaskStack                  
84010ee1  ti_sysbios_heaps_HeapMem_getStats__E                                 
84010f31  ti_sysbios_knl_Swi_runLoop__I                                        
84010f81  ti_sysbios_knl_Task_allBlockedFunction__I                            
84010fcd  __aeabi_d2iz                                                         
84011019  ti_sysbios_family_arm_m3_Hwi_disableInterrupt__E                     
84011061  ti_sysbios_family_arm_m3_Hwi_enableInterrupt__E                      
840110a9  ti_sysbios_family_arm_m3_Hwi_excReserved__I                          
840110f1  ti_sysbios_family_arm_m3_Hwi_initStacks__E                           
84011139  ti_sysbios_hal_unicache_Cache_wbInvAll__E                            
84011181  xdc_runtime_Core_assignParams__I                                     
840111c9  _c_int00                                                             
84011211  ti_sysbios_family_arm_ducati_Timer_oneShotStub__E                    
84011259  ti_sysbios_hal_unicache_Cache_wbAll__E                               
8401129d  xdc_runtime_Error_setX__E                                            
840112e1  xdc_runtime_SysMin_flush__E                                          
84011325  xdc_runtime_Text_xprintf__I                                          
84011369  __aeabi_uidiv                                                        
84011369  __aeabi_uidivmod                                                     
840113a9  ti_sysbios_family_arm_ducati_Timer_getFreq__E                        
840113e9  ti_sysbios_hal_unicache_Cache_seizeRegs__I                           
84011429  ti_sysbios_family_arm_ducati_Core_Module_startup__E                  
84011469  ti_sysbios_family_arm_m3_Hwi_Instance_finalize__E                    
840114a9  ti_sysbios_family_arm_m3_Hwi_excSvCall__I                            
840114e9  ti_sysbios_hal_unicache_Cache_disable__E                             
84011529  ti_sysbios_hal_unicache_Cache_enable__E                              
84011569  ti_sysbios_heaps_HeapMem_init__I                                     
840115a9  ti_sysbios_knl_Swi_startup__E                                        
840115e9  ti_sysbios_family_arm_m3_Hwi_excNoIsr__I                             
84011621  ti_sysbios_knl_Task_processVitalTaskFlag__I                          
84011659  xdc_runtime_SysMin_putch__E                                          
84011691  xdc_runtime_System_atexit__E                                         
840116c9  strncpy                                                              
84011701  ti_sysbios_family_arm_m3_Hwi_excNmi__I                               
84011735  xdc_runtime_Core_assignLabel__I                                      
84011769  xdc_runtime_Text_printVisFxn__I                                      
840117a1  ti_sysbios_knl_Semaphore_pendTimeout__I                              
840117d9  ti_sysbios_family_arm_ducati_Timer_stop__E                           
84011809  ti_sysbios_heaps_HeapMem_free__E                                     
84011839  xdc_runtime_SysMin_abort__E                                          
84011869  xdc_runtime_System_processAtExit__E                                  
84011899  __aeabi_i2d                                                          
840118c9  _nassert                                                             
840118cb  _abort_msg                                                           
840118e1  _assert                                                              
840118f9  ti_sysbios_knl_Task_restore__E                                       
84011925  xdc_runtime_Text_cordText__E                                         
84011951  xdc_runtime_System_putchar__I                                        
84011981  ti_sysbios_hal_unicache_Cache_wait__E                                
840119a9  ti_sysbios_knl_Swi_Module_startup__E                                 
840119d1  xdc_runtime_System_avprintf__E                                       
840119f9  ti_sysbios_family_arm_m3_Hwi_doTaskRestore__I                        
84011a21  ti_sysbios_knl_Clock_Module_startup__E                               
84011a45  xdc_runtime_System_vprintf__E                                        
84011a69  memchr                                                               
84011a89  ti_sysbios_family_arm_ducati_Timer_getCount__E                       
84011aa9  ti_sysbios_family_arm_m3_Hwi_excHandlerAsm__I                        
84011ac9  ti_sysbios_family_arm_m3_Hwi_excHandler__I                           
84011ae9  ti_sysbios_hal_Hwi_Instance_init__E                                  
84011b09  ti_sysbios_knl_Idle_run__E                                           
84011b29  xdc_runtime_Registry_findById__E                                     
84011b49  xdc_runtime_SysMin_Module_startup__E                                 
84011b69  ti_sysbios_family_xxx_Hwi_switchAndRunFunc                           
84011b87  memccpy                                                              
84011ba9  ti_sysbios_family_arm_ducati_Timer_periodicStub__E                   
84011bc9  ti_sysbios_family_arm_m3_TaskSupport_start__E                        
84011be9  ti_sysbios_gates_GateMutex_Instance_init__E                          
84011c09  ti_sysbios_knl_Task_enter__I                                         
84011c25  xdc_runtime_Error_check__E                                           
84011c41  xdc_runtime_Error_raiseX__E                                          
84011c5d  xdc_runtime_Memory_valloc__E                                         
84011c79  xdc_runtime_SysMin_exit__E                                           
84011c95  xdc_runtime_System_abort__E                                          
84011cb1  ti_sysbios_family_arm_m3_Hwi_pendSV__I                               
84011cc9  ti_sysbios_family_arm_m3_Hwi_return                                  
84011ccd  _args_main                                                           
84011ce5  strcmp                                                               
84011d01  ti_sysbios_gates_GateMutex_leave__E                                  
84011d19  xdc_runtime_Error_init__E                                            
84011d31  xdc_runtime_System_exit__E                                           
84011d49  xdc_runtime_Text_ropeText__E                                         
84011d61  strchr                                                               
84011d77  xdc_runtime_System_avsprintf__E                                      
84011d8d  xdc_runtime_System_vsprintf__E                                       
84011da5  _register_unlock                                                     
84011dab  _register_lock                                                       
84011db3  _nop                                                                 
84011db9  strcpy                                                               
84011dcd  strlen                                                               
84011de1  ti_sysbios_family_arm_m3_Hwi_switchFromBootStack__E                  
84011df9  ti_sysbios_family_arm_ducati_Timer_setFunc__E                        
84011e11  ti_sysbios_hal_Hwi_Module_startup__E                                 
84011e29  ti_sysbios_BIOS_setThreadType__E                                     
84011e39  ti_sysbios_BIOS_start__E                                             
84011e49  ti_sysbios_family_arm_m3_TaskSupport_glue                            
84011e59  ti_sysbios_family_arm_m3_TaskSupport_swap__E                         
84011e61  ti_sysbios_knl_Task_swapReturn                                       
84011e69  ti_sysbios_gates_GateMutex_Instance_finalize__E                      
84011e79  ti_sysbios_knl_Semaphore_Instance_finalize__E                        
84011e89  ti_sysbios_knl_Swi_disable__E                                        
84011e99  ti_sysbios_knl_Task_disable__E                                       
84011ea9  xdc_runtime_Gate_leaveSystem__E                                      
84011eb9  xdc_runtime_Memory_free__E                                           
84011ec9  xdc_runtime_SysMin_ready__E                                          
84011ed9  xdc_runtime_System_vsnprintf__E                                      
84011ee9  ti_sysbios_knl_Idle_loop__E                                          
84011ef9  ti_sysbios_knl_Queue_empty__E                                        
84011f09  ti_sysbios_family_arm_ducati_Core_getIpuId__E                        
84011f19  ti_sysbios_family_arm_ducati_Core_startCore1__I                      
84011f29  ti_sysbios_family_arm_ducati_GateDualCore_leave__E                   
84011f39  ti_sysbios_family_arm_m3_Hwi_disableFxn__E                           
84011f49  ti_sysbios_family_arm_m3_TaskSupport_getStackAlignment__E            
84011f59  ti_sysbios_gates_GateHwi_enter__E                                    
84011f65  xdc_runtime_Gate_enterSystem__E                                      
84011f71  xdc_runtime_Memory_calloc__E                                         
84011f7d  xdc_runtime_Memory_getMaxDefaultTypeAlign__E                         
84011f89  xdc_runtime_Startup_rtsDone__E                                       
84011f95  ti_sysbios_family_arm_m3_IntrinsicsSupport_maxbit__E                 
84011fa1  ti_sysbios_hal_Hwi_Instance_finalize__E                              
84011fab  copysign                                                             
84011fab  copysignl                                                            
84011fb9  ti_sysbios_family_arm_ducati_Timer_getFunc__E                        
84011fc1  ti_sysbios_family_arm_m3_Hwi_doSwiRestore__I                         
84011fc9  ti_sysbios_family_arm_m3_Hwi_getFunc__E                              
84011fd1  ti_sysbios_family_arm_m3_Hwi_getHookContext__E                       
84011fd9  ti_sysbios_family_arm_m3_Hwi_setHookContext__E                       
84011fe1  ti_sysbios_family_arm_m3_Hwi_startup__E                              
84011fe9  ti_sysbios_family_arm_m3_Hwi_restoreFxn__E                           
84011ff1  ti_sysbios_family_arm_m3_Hwi_setFunc__E                              
84011ff9  ti_sysbios_gates_GateHwi_leave__E                                    
84012001  ti_sysbios_heaps_HeapMem_isBlocking__E                               
84012009  ti_sysbios_knl_Queue_Instance_init__E                                
84012011  ti_sysbios_knl_Task_enable__E                                        
84012019  ti_sysbios_family_arm_ducati_GateDualCore_query__E                   
84012021  ti_sysbios_family_arm_ducati_Timer_getCurrentTick__E                 
84012029  ti_sysbios_family_arm_ducati_Timer_getExpiredTicks__E                
84012031  ti_sysbios_family_arm_ducati_Timer_getMaxTicks__E                    
84012039  ti_sysbios_family_arm_ducati_Timer_getPeriod__E                      
84012041  ti_sysbios_family_arm_m3_Hwi_getIrp__E                               
84012049  ti_sysbios_gates_GateHwi_query__E                                    
84012051  ti_sysbios_gates_GateMutex_query__E                                  
84012059  ti_sysbios_hal_Cache_inv__E                                          
84012061  ti_sysbios_hal_Cache_wb__E                                           
84012069  ti_sysbios_hal_Hwi_disableInterrupt__E                               
84012071  ti_sysbios_hal_Hwi_enableInterrupt__E                                
84012079  ti_sysbios_hal_Hwi_startup__E                                        
84012081  ti_sysbios_knl_Task_startup__E                                       
84012089  ti_sysbios_BIOS_linkedWithIncorrectBootLibrary__E                    
84012091  ti_sysbios_family_arm_ducati_Timer_setNextTick__E                    
84012099  ti_sysbios_gates_GateHwi_Instance_init__E                            
85000000  __ASM__                                                              
85000000  ti_sysbios_heaps_HeapMem_Instance_State_0_buf__A                     
8500012c  __ISA__                                                              
8500013f  __PLAT__                                                             
85000165  __TARG__                                                             
8500018a  __TRDR__                                                             
85015000  edma3DrvChBoundRes                                                   
85023420  drvInstance                                                          
85027c00  resMgrInstanceArray                                                  
8502b8a0  userInstInitConfigArray                                              
8502d2e0  drvObj                                                               
8502e154  resMgrObj                                                            
8502fec8  xdc_runtime_SysMin_Module_State_0_outbuf__A                          
850302c8  ti_sysbios_family_arm_m3_Hwi_dispatchTable                           
85030408  __CIOBUF_                                                            
850305c8  __TI_tmpnams                                                         
850306a8  hwiTCErrInt                                                          
850306c8  edma3_dma_ch_max_val                                                 
850306dc  edma3_link_ch_max_val                                                
850306f0  edma3_link_ch_min_val                                                
85030704  edma3_log_ch_max_val                                                 
85030718  edma3_qdma_ch_max_val                                                
8503072c  edma3_qdma_ch_min_val                                                
85030748  dsp_num                                                              
8503074c  dsp_num_tmp                                                          
85030750  dstBuff1                                                             
85030754  dstBuff2                                                             
85030758  dstL1DBuff1                                                          
8503075c  dstL1DBuff2                                                          
85030760  hwiCCErrInt                                                          
85030764  hwiCCXferCompInt                                                     
85030768  myCoreNum                                                            
8503076c  pingpongDestBuf                                                      
85030770  pingpongDestBufCopy                                                  
85030774  pingpongSrcBuf                                                       
85030778  pingpongSrcBufCopy                                                   
8503077c  region_id                                                            
85030780  srcBuff1                                                             
85030784  srcBuff2                                                             
85030788  sampleXbarChanInitConfig                                             
85031f28  defInstInitConfig                                                    
85032ee8  sampleInstInitConfig                                                 
85033ea8  edma3GblCfgParams                                                    
85034730  sampleEdma3GblCfgParams                                              
85034fb8  _ftable                                                              
85035178  ti_sysbios_knl_Swi_Module_State_0_readyQ__A                          
850351f8  ti_sysbios_knl_Task_Module_State_0_readyQ__A                         
85035278  ti_sysbios_family_shared_vayu_IntXbar_Module_State_0_intXbar__A      
850352ec  ccCompEdmaXbarIndex                                                  
8503534c  ccXferCompInt                                                        
850353ac  ccXferCompIntXbarInstNo                                              
8503540c  tcErrEdmaXbarIndex                                                   
8503546c  tcErrorInt                                                           
850354cc  tcErrorIntXbarInstNo                                                 
8503552c  ti_sysbios_knl_Task_Object__table__V                                 
85035578  ti_sysbios_knl_Task_Module__state__V                                 
850355bc  ti_sysbios_gates_GateMutex_Object__table__V                          
850355f4  ti_sysbios_family_arm_ducati_Timer_Object__table__V                  
85035628  ti_sysbios_family_arm_m3_Hwi_Module__state__V                        
8503565c  ti_sysbios_family_arm_m3_Hwi_Object__table__V                        
8503568c  ti_sysbios_knl_Swi_Object__table__V                                  
850356bc  ti_sysbios_knl_Clock_Module__state__V                                
85035710  ti_sysbios_BIOS_Module__state__V                                     
85035734  ptrEdma3TcIsrHandler                                                 
85035754  ti_sysbios_family_arm_ducati_GateDualCore_Object__table__V           
85035774  xdc_runtime_Error_IgnoreBlock                                        
85035794  xdc_runtime_System_Module_State_0_atexitHandlers__A                  
850357b4  ti_sysbios_knl_Swi_Module__state__V                                  
850357d0  ti_sysbios_heaps_HeapMem_Object__table__V                            
850357fc  resMgrInstance                                                       
85035800  userInitConfig                                                       
85035804  ptrRMIArray                                                          
85035808  ptrInitCfgArray                                                      
8503581c  __TI_ft_end                                                          
85035820  __aeabi_stdin                                                        
85035824  __aeabi_stdout                                                       
85035828  __aeabi_stderr                                                       
8503582c  __TI_cleanup_ptr                                                     
85035830  __TI_dtors_ptr                                                       
85035834  __TI_enable_exit_profile_output                                      
85035838  ccErrEdmaXbarIndex                                                   
85035844  ccErrorInt                                                           
85035850  ccErrorIntXbarInstNo                                                 
8503585c  irqRaised1                                                           
8503585e  irqRaised2                                                           
85035860  AppSemHandle1                                                        
85035864  AppSemHandle2                                                        
85035868  gpp_num                                                              
85035874  numEdma3Tc                                                           
85035880  semHandle                                                            
8503588c  ti_sysbios_family_arm_ducati_Timer_Module__state__V                  
85035898  xdc_runtime_SysMin_Module__state__V                                  
850358a8  edma3NumPaRAMSets                                                    
850358ae  ti_sysbios_family_arm_m3_Hwi_Module_State_0_excActive__A             
850358b0  _lock                                                                
850358b4  _unlock                                                              
850358d0  ti_sysbios_family_arm_ducati_GateDualCore_Module__root__V            
850358d8  ti_sysbios_family_arm_ducati_Timer_Module__root__V                   
850358e0  ti_sysbios_family_arm_m3_Hwi_Module__root__V                         
850358e8  ti_sysbios_gates_GateHwi_Module__root__V                             
850358f0  ti_sysbios_gates_GateMutex_Module__root__V                           
850358f8  ti_sysbios_hal_Hwi_Module__root__V                                   
85035900  ti_sysbios_heaps_HeapMem_Module__root__V                             
85035908  ti_sysbios_knl_Clock_Module__root__V                                 
85035910  ti_sysbios_knl_Queue_Module__root__V                                 
85035918  ti_sysbios_knl_Semaphore_Module__root__V                             
85035920  ti_sysbios_knl_Swi_Module__root__V                                   
85035928  ti_sysbios_knl_Task_Module__root__V                                  
85035930  xdc_runtime_Registry_Module__state__V                                
85035938  xdc_runtime_Startup_Module__state__V                                 
85035940  xdc_runtime_System_Module__state__V                                  
85035950  errno                                                                
85035958  main_func_sp                                                         
8503595c  ti_sysbios_family_arm_ducati_GateDualCore_Module__state__V           
85035960  ti_sysbios_family_arm_m3_Hwi_Module_State_0_excContext__A            
85035964  ti_sysbios_family_arm_m3_Hwi_Module_State_0_excStack__A              
85035968  ti_sysbios_family_shared_vayu_IntXbar_Module__state__V               
8503596c  ti_sysbios_gates_GateHwi_Object__table__V                            
85035970  ti_sysbios_knl_Task_Module_State_0_idleTask__A                       
85035974  xdc_runtime_Memory_Module__state__V                                  
85035978  xdc_runtime_Error_Module__state__V                                   
8503597c  __stack                                                              
8503997c  __STACK_END                                                          
8503997c  xdc_runtime_Text_charTab__A                                          
8503b56a  ti_sysbios_family_arm_ducati_Core_Module__id__C                      
8503b56c  ti_sysbios_hal_ammu_AMMU_mmuInitConfig__C                            
8503ba24  _ctypes_                                                             
8503bb25  xdc_runtime_Error_policy__C                                          
8503bb26  xdc_runtime_Text_nodeTab__A                                          
8503bbf6  ti_sysbios_family_arm_ducati_GateDualCore_Module__id__C              
8503bc40  ti_sysbios_knl_Task_Object__PARAMS__C                                
8503bc7c  ti_sysbios_hal_unicache_Cache_Module__FXNS__C                        
8503bcb4  edma3LldVersionStr                                                   
8503bcea  ti_sysbios_family_arm_ducati_GateDualCore_initGates__C               
8503bcec  ti_sysbios_family_arm_ducati_Timer_Object__PARAMS__C                 
8503bd20  ti_sysbios_family_arm_m3_Hwi_Object__PARAMS__C                       
8503bd50  ti_sysbios_hal_Hwi_Object__PARAMS__C                                 
8503bd7c  xdc_runtime_SysMin_Module__FXNS__C                                   
8503bda8  ti_sysbios_heaps_HeapMem_Module__FXNS__C                             
8503bdd0  ti_sysbios_knl_Swi_Object__PARAMS__C                                 
8503bdf8  xdc_runtime_Startup_sfxnTab__A                                       
8503be20  ti_sysbios_family_arm_ducati_GateDualCore_Module__FXNS__C            
8503be44  ti_sysbios_gates_GateHwi_Module__FXNS__C                             
8503be68  ti_sysbios_gates_GateMutex_Module__FXNS__C                           
8503be8c  ti_sysbios_heaps_HeapMem_Object__PARAMS__C                           
8503beb0  ti_sysbios_knl_Clock_Object__PARAMS__C                               
8503bed4  ti_sysbios_knl_Semaphore_Object__PARAMS__C                           
8503bf58  ti_sysbios_family_arm_ducati_GateDualCore_Object__DESC__C            
8503bf78  ti_sysbios_family_arm_ducati_Timer_Object__DESC__C                   
8503bf98  ti_sysbios_family_arm_m3_Hwi_Object__DESC__C                         
8503bfb8  ti_sysbios_gates_GateHwi_Object__DESC__C                             
8503bfd8  ti_sysbios_gates_GateMutex_Object__DESC__C                           
8503bff8  ti_sysbios_hal_Hwi_Object__DESC__C                                   
8503c018  ti_sysbios_heaps_HeapMem_Object__DESC__C                             
8503c038  ti_sysbios_knl_Clock_Object__DESC__C                                 
8503c058  ti_sysbios_knl_Queue_Object__DESC__C                                 
8503c078  ti_sysbios_knl_Semaphore_Object__DESC__C                             
8503c098  ti_sysbios_knl_Swi_Object__DESC__C                                   
8503c0b8  ti_sysbios_knl_Task_Object__DESC__C                                  
8503c0d8  ti_sysbios_family_arm_ducati_GateDualCore_Object__PARAMS__C          
8503c0f4  ti_sysbios_family_arm_m3_IntrinsicsSupport_Module__FXNS__C           
8503c110  ti_sysbios_gates_GateHwi_Object__PARAMS__C                           
8503c128  ti_sysbios_gates_GateMutex_Object__PARAMS__C                         
8503c140  ti_sysbios_knl_Queue_Object__PARAMS__C                               
8503c158  xdc_runtime_Startup_sfxnRts__A                                       
8503c16c  xdc_runtime_Startup_firstFxns__A                                     
8503c178  numEdma3Instances                                                    
8503c17c  numDsps                                                              
8503c180  ti_sysbios_family_arm_m3_Hwi_excHookFuncs__A                         
8503c188  ti_sysbios_knl_Idle_funcList__C                                      
8503c190  xdc_runtime_Startup_firstFxns__C                                     
8503c198  xdc_runtime_Startup_lastFxns__C                                      
8503c1a0  EDMA3_MAX_RM_INSTANCES                                               
8503c1a4  ti_sysbios_family_arm_ducati_Core_E_mismatchedIds__C                 
8503c1a8  ti_sysbios_family_arm_ducati_Core_id__C                              
8503c1ac  ti_sysbios_family_arm_ducati_Core_ipuId__C                           
8503c1b0  ti_sysbios_family_arm_ducati_GateDualCore_A_nestedEnter__C           
8503c1b4  ti_sysbios_family_arm_ducati_GateDualCore_E_gateInUse__C             
8503c1b8  ti_sysbios_family_arm_ducati_GateDualCore_E_invalidIndex__C          
8503c1bc  ti_sysbios_family_arm_ducati_GateDualCore_Module__diagsEnabled__C    
8503c1c0  ti_sysbios_family_arm_ducati_GateDualCore_Module__diagsIncluded__C   
8503c1c4  ti_sysbios_family_arm_ducati_GateDualCore_Module__diagsMask__C       
8503c1c8  ti_sysbios_family_arm_ducati_GateDualCore_Object__count__C           
8503c1cc  ti_sysbios_family_arm_ducati_GateDualCore_numGates__C                
8503c1d0  ti_sysbios_family_arm_ducati_Timer_E_cannotSupport__C                
8503c1d4  ti_sysbios_family_arm_ducati_Timer_E_invalidTimer__C                 
8503c1d8  ti_sysbios_family_arm_ducati_Timer_E_notAvailable__C                 
8503c1dc  ti_sysbios_family_arm_ducati_Timer_anyMask__C                        
8503c1e0  ti_sysbios_family_arm_ducati_Timer_startupNeeded__C                  
8503c1e4  ti_sysbios_family_arm_m3_Hwi_E_NMI__C                                
8503c1e8  ti_sysbios_family_arm_m3_Hwi_E_alreadyDefined__C                     
8503c1ec  ti_sysbios_family_arm_m3_Hwi_E_busFault__C                           
8503c1f0  ti_sysbios_family_arm_m3_Hwi_E_debugMon__C                           
8503c1f4  ti_sysbios_family_arm_m3_Hwi_E_hardFault__C                          
8503c1f8  ti_sysbios_family_arm_m3_Hwi_E_memFault__C                           
8503c1fc  ti_sysbios_family_arm_m3_Hwi_E_noIsr__C                              
8503c200  ti_sysbios_family_arm_m3_Hwi_E_reserved__C                           
8503c204  ti_sysbios_family_arm_m3_Hwi_E_svCall__C                             
8503c208  ti_sysbios_family_arm_m3_Hwi_E_usageFault__C                         
8503c20c  ti_sysbios_family_arm_m3_Hwi_LD_end__C                               
8503c210  ti_sysbios_family_arm_m3_Hwi_LM_begin__C                             
8503c214  ti_sysbios_family_arm_m3_Hwi_Module__diagsEnabled__C                 
8503c218  ti_sysbios_family_arm_m3_Hwi_Module__diagsIncluded__C                
8503c21c  ti_sysbios_family_arm_m3_Hwi_Module__diagsMask__C                    
8503c220  ti_sysbios_family_arm_m3_Hwi_Module__loggerFxn1__C                   
8503c224  ti_sysbios_family_arm_m3_Hwi_Module__loggerFxn8__C                   
8503c228  ti_sysbios_family_arm_m3_Hwi_Module__loggerObj__C                    
8503c22c  ti_sysbios_family_arm_m3_Hwi_NUM_INTERRUPTS__C                       
8503c230  ti_sysbios_family_arm_m3_Hwi_Object__count__C                        
8503c234  ti_sysbios_family_arm_m3_Hwi_ccr__C                                  
8503c238  ti_sysbios_family_arm_m3_Hwi_excHandlerFunc__C                       
8503c23c  ti_sysbios_family_arm_m3_Hwi_excHookFuncs__C                         
8503c240  ti_sysbios_family_arm_m3_Hwi_nullIsrFunc__C                          
8503c244  ti_sysbios_family_arm_m3_Hwi_priGroup__C                             
8503c248  ti_sysbios_family_arm_m3_TaskSupport_stackAlignment__C               
8503c24c  ti_sysbios_family_shared_vayu_IntXbar_A_badBenelliIpuId__C           
8503c250  ti_sysbios_family_shared_vayu_IntXbar_A_badBenelliXbarInstanceNum__C 
8503c254  ti_sysbios_family_shared_vayu_IntXbar_A_badIntSourceIdx__C           
8503c258  ti_sysbios_family_shared_vayu_IntXbar_Module__diagsEnabled__C        
8503c25c  ti_sysbios_family_shared_vayu_IntXbar_Module__diagsIncluded__C       
8503c260  ti_sysbios_family_shared_vayu_IntXbar_Module__diagsMask__C           
8503c264  ti_sysbios_family_shared_vayu_IntXbar_mmrBaseAddr__C                 
8503c268  ti_sysbios_gates_GateMutex_A_badContext__C                           
8503c26c  ti_sysbios_gates_GateMutex_Instance_State_sem__O                     
8503c270  ti_sysbios_gates_GateMutex_Module__diagsEnabled__C                   
8503c274  ti_sysbios_gates_GateMutex_Module__diagsIncluded__C                  
8503c278  ti_sysbios_gates_GateMutex_Module__diagsMask__C                      
8503c27c  ti_sysbios_hal_ammu_AMMU_numLargePages__C                            
8503c280  ti_sysbios_hal_ammu_AMMU_numLinePages__C                             
8503c284  ti_sysbios_hal_ammu_AMMU_numMediumPages__C                           
8503c288  ti_sysbios_hal_ammu_AMMU_numSmallPages__C                            
8503c28c  ti_sysbios_hal_unicache_Cache_Module__gateObj__C                     
8503c290  ti_sysbios_hal_unicache_Cache_l1ocpConfig__C                         
8503c294  ti_sysbios_hal_unicache_Cache_l1secConfig__C                         
8503c298  ti_sysbios_hal_unicache_Cache_l2ocpConfig__C                         
8503c29c  ti_sysbios_hal_unicache_Cache_l2secConfig__C                         
8503c2a0  ti_sysbios_hal_unicache_Cache_maxLineModeBufSize__C                  
8503c2a4  ti_sysbios_heaps_HeapMem_A_align__C                                  
8503c2a8  ti_sysbios_heaps_HeapMem_A_heapSize__C                               
8503c2ac  ti_sysbios_heaps_HeapMem_A_invalidFree__C                            
8503c2b0  ti_sysbios_heaps_HeapMem_A_zeroBlock__C                              
8503c2b4  ti_sysbios_heaps_HeapMem_E_memory__C                                 
8503c2b8  ti_sysbios_heaps_HeapMem_Module__diagsEnabled__C                     
8503c2bc  ti_sysbios_heaps_HeapMem_Module__diagsIncluded__C                    
8503c2c0  ti_sysbios_heaps_HeapMem_Module__diagsMask__C                        
8503c2c4  ti_sysbios_heaps_HeapMem_Module__gateObj__C                          
8503c2c8  ti_sysbios_heaps_HeapMem_Object__count__C                            
8503c2cc  ti_sysbios_heaps_HeapMem_reqAlign__C                                 
8503c2d0  ti_sysbios_interfaces_ICache_Interface__BASE__C                      
8503c2d4  ti_sysbios_interfaces_IIntrinsicsSupport_Interface__BASE__C          
8503c2d8  ti_sysbios_knl_Clock_A_badThreadType__C                              
8503c2dc  ti_sysbios_knl_Clock_LM_begin__C                                     
8503c2e0  ti_sysbios_knl_Clock_LM_tick__C                                      
8503c2e4  ti_sysbios_knl_Clock_LW_delayed__C                                   
8503c2e8  ti_sysbios_knl_Clock_Module_State_clockQ__O                          
8503c2ec  ti_sysbios_knl_Clock_Module__diagsEnabled__C                         
8503c2f0  ti_sysbios_knl_Clock_Module__diagsIncluded__C                        
8503c2f4  ti_sysbios_knl_Clock_Module__diagsMask__C                            
8503c2f8  ti_sysbios_knl_Clock_Module__loggerFxn1__C                           
8503c2fc  ti_sysbios_knl_Clock_Module__loggerFxn2__C                           
8503c300  ti_sysbios_knl_Clock_Module__loggerObj__C                            
8503c304  ti_sysbios_knl_Semaphore_A_badContext__C                             
8503c308  ti_sysbios_knl_Semaphore_A_noEvents__C                               
8503c30c  ti_sysbios_knl_Semaphore_A_overflow__C                               
8503c310  ti_sysbios_knl_Semaphore_A_pendTaskDisabled__C                       
8503c314  ti_sysbios_knl_Semaphore_Instance_State_pendQ__O                     
8503c318  ti_sysbios_knl_Semaphore_LM_pend__C                                  
8503c31c  ti_sysbios_knl_Semaphore_LM_post__C                                  
8503c320  ti_sysbios_knl_Semaphore_Module__diagsEnabled__C                     
8503c324  ti_sysbios_knl_Semaphore_Module__diagsIncluded__C                    
8503c328  ti_sysbios_knl_Semaphore_Module__diagsMask__C                        
8503c32c  ti_sysbios_knl_Semaphore_Module__loggerFxn2__C                       
8503c330  ti_sysbios_knl_Semaphore_Module__loggerFxn4__C                       
8503c334  ti_sysbios_knl_Semaphore_Module__loggerObj__C                        
8503c338  ti_sysbios_knl_Swi_A_badPriority__C                                  
8503c33c  ti_sysbios_knl_Swi_LD_end__C                                         
8503c340  ti_sysbios_knl_Swi_LM_begin__C                                       
8503c344  ti_sysbios_knl_Swi_LM_post__C                                        
8503c348  ti_sysbios_knl_Swi_Module__diagsEnabled__C                           
8503c34c  ti_sysbios_knl_Swi_Module__diagsIncluded__C                          
8503c350  ti_sysbios_knl_Swi_Module__diagsMask__C                              
8503c354  ti_sysbios_knl_Swi_Module__loggerFxn1__C                             
8503c358  ti_sysbios_knl_Swi_Module__loggerFxn4__C                             
8503c35c  ti_sysbios_knl_Swi_Module__loggerObj__C                              
8503c360  ti_sysbios_knl_Swi_Object__count__C                                  
8503c364  ti_sysbios_knl_Task_A_badPriority__C                                 
8503c368  ti_sysbios_knl_Task_A_badTaskState__C                                
8503c36c  ti_sysbios_knl_Task_A_badThreadType__C                               
8503c370  ti_sysbios_knl_Task_A_noPendElem__C                                  
8503c374  ti_sysbios_knl_Task_LD_block__C                                      
8503c378  ti_sysbios_knl_Task_LD_exit__C                                       
8503c37c  ti_sysbios_knl_Task_LD_ready__C                                      
8503c380  ti_sysbios_knl_Task_LM_switch__C                                     
8503c384  ti_sysbios_knl_Task_Module_State_inactiveQ__O                        
8503c388  ti_sysbios_knl_Task_Module__diagsEnabled__C                          
8503c38c  ti_sysbios_knl_Task_Module__diagsIncluded__C                         
8503c390  ti_sysbios_knl_Task_Module__diagsMask__C                             
8503c394  ti_sysbios_knl_Task_Module__loggerFxn2__C                            
8503c398  ti_sysbios_knl_Task_Module__loggerFxn4__C                            
8503c39c  ti_sysbios_knl_Task_Module__loggerObj__C                             
8503c3a0  ti_sysbios_knl_Task_Object__count__C                                 
8503c3a4  ti_sysbios_knl_Task_allBlockedFunc__C                                
8503c3a8  ti_sysbios_knl_Task_defaultStackHeap__C                              
8503c3ac  ti_sysbios_knl_Task_defaultStackSize__C                              
8503c3b0  ti_sysbios_knl_Task_numConstructedTasks__C                           
8503c3b4  xdc_runtime_Assert_E_assertFailed__C                                 
8503c3b8  xdc_runtime_Core_A_initializedParams__C                              
8503c3bc  xdc_runtime_Core_Module__diagsEnabled__C                             
8503c3c0  xdc_runtime_Core_Module__diagsIncluded__C                            
8503c3c4  xdc_runtime_Core_Module__diagsMask__C                                
8503c3c8  xdc_runtime_Error_E_memory__C                                        
8503c3cc  xdc_runtime_Error_Module__diagsEnabled__C                            
8503c3d0  xdc_runtime_Error_Module__diagsIncluded__C                           
8503c3d4  xdc_runtime_Error_Module__diagsMask__C                               
8503c3d8  xdc_runtime_Error_Module__loggerFxn8__C                              
8503c3dc  xdc_runtime_Error_Module__loggerObj__C                               
8503c3e0  xdc_runtime_Error_policyFxn__C                                       
8503c3e4  xdc_runtime_Error_raiseHook__C                                       
8503c3e8  xdc_runtime_IGateProvider_Interface__BASE__C                         
8503c3ec  xdc_runtime_IHeap_Interface__BASE__C                                 
8503c3f0  xdc_runtime_IModule_Interface__BASE__C                               
8503c3f4  xdc_runtime_ISystemSupport_Interface__BASE__C                        
8503c3f8  xdc_runtime_Log_L_error__C                                           
8503c3fc  xdc_runtime_Memory_defaultHeapInstance__C                            
8503c400  xdc_runtime_Startup_execImpl__C                                      
8503c404  xdc_runtime_Startup_lastFxns__A                                      
8503c408  xdc_runtime_Startup_maxPasses__C                                     
8503c40c  xdc_runtime_Startup_sfxnRts__C                                       
8503c410  xdc_runtime_Startup_sfxnTab__C                                       
8503c414  xdc_runtime_SysMin_bufSize__C                                        
8503c418  xdc_runtime_SysMin_outputFunc__C                                     
8503c41c  xdc_runtime_System_Module__gateObj__C                                
8503c420  xdc_runtime_System_abortFxn__C                                       
8503c424  xdc_runtime_System_exitFxn__C                                        
8503c428  xdc_runtime_System_extendFxn__C                                      
8503c42c  xdc_runtime_System_maxAtexitHandlers__C                              
8503c430  xdc_runtime_Text_charTab__C                                          
8503c434  xdc_runtime_Text_nameEmpty__C                                        
8503c438  xdc_runtime_Text_nameStatic__C                                       
8503c43c  xdc_runtime_Text_nameUnknown__C                                      
8503c440  xdc_runtime_Text_nodeTab__C                                          
8503c444  xdc_runtime_Text_visitRopeFxn__C                                     
8503c448  ti_sysbios_family_arm_ducati_Timer_Module__id__C                     
8503c44a  ti_sysbios_family_arm_m3_Hwi_Module__id__C                           
8503c44c  ti_sysbios_family_arm_m3_Hwi_Module__loggerDefined__C                
8503c44e  ti_sysbios_family_shared_vayu_IntXbar_Module__id__C                  
8503c450  ti_sysbios_gates_GateMutex_Module__id__C                             
8503c452  ti_sysbios_hal_ammu_AMMU_configureAmmu__C                            
8503c454  ti_sysbios_hal_unicache_Cache_configureCache__C                      
8503c456  ti_sysbios_hal_unicache_Cache_enableCache__C                         
8503c458  ti_sysbios_hal_unicache_Cache_l2CacheSupported__C                    
8503c45a  ti_sysbios_heaps_HeapMem_Module__id__C                               
8503c45c  ti_sysbios_knl_Clock_Module__id__C                                   
8503c45e  ti_sysbios_knl_Clock_Module__loggerDefined__C                        
8503c460  ti_sysbios_knl_Semaphore_Module__id__C                               
8503c462  ti_sysbios_knl_Semaphore_Module__loggerDefined__C                    
8503c464  ti_sysbios_knl_Swi_Module__id__C                                     
8503c466  ti_sysbios_knl_Swi_Module__loggerDefined__C                          
8503c468  ti_sysbios_knl_Task_Module__id__C                                    
8503c46a  ti_sysbios_knl_Task_Module__loggerDefined__C                         
8503c46c  xdc_runtime_Core_Module__id__C                                       
8503c46e  xdc_runtime_Error_Module__loggerDefined__C                           
8503c470  xdc_runtime_Error_maxDepth__C                                        
8503c472  xdc_runtime_Memory_Module__id__C                                     
8503c474  xdc_runtime_SysMin_flushAtExit__C                                    
8503c476  xdc_runtime_Text_charCnt__C                                          
8503c478  xdc_runtime_Text_isLoaded__C                                         
8503c47a  xdc_runtime_Text_registryModsLastId__C                               
8503c47c  xdc_runtime_Text_unnamedModsLastId__C                                
8503c480  _pingpongSrcBuf                                                      
8503d200  _pingpongDestBuf                                                     
8503df80  _dstL1DBuff1                                                         
8503e200  _dstL1DBuff2                                                         
8503e480  _srcBuff1                                                            
8503e500  _dstBuff1                                                            
8503e580  _srcBuff2                                                            
8503e600  _dstBuff2                                                            
8503e640  ti_sysbios_knl_Task_Instance_State_0_stack__A                        
e000e000  ti_sysbios_family_arm_m3_Hwi_nvic                                    
ffffffff  __TI_pprof_out_hndl                                                  
ffffffff  __TI_prof_data_size                                                  
ffffffff  __TI_prof_data_start                                                 
ffffffff  __TI_static_base__                                                   
ffffffff  __binit__                                                            
ffffffff  __c_args__                                                           
ffffffff  binit                                                                
UNDEFED   SHT$$INIT_ARRAY$$Base                                                
UNDEFED   SHT$$INIT_ARRAY$$Limit                                               
UNDEFED   __TI_CINIT_Base                                                      
UNDEFED   __TI_CINIT_Limit                                                     
UNDEFED   __TI_Handler_Table_Base                                              
UNDEFED   __TI_Handler_Table_Limit                                             

[1165 symbols]


DYNAMIC SYMBOLS: SORTED ALPHABETICALLY BY Name 

address  name
-------  ----
UNDEFED      

[1 symbols]


IMPORTED and EXPORTED SYMBOLS: SORTED ALPHABETICALLY BY Name 

IMPORTED SYMBOLS

name                           size      Imported from
-----------------------------  --------  -------------

[0 symbols]


EXPORTED SYMBOLS


[0 symbols]
